(lp1
(S'/data/ad6813/pipe-data/Blue100/198098.jpg'
p2
cnumpy.core.multiarray
_reconstruct
p3
(cnumpy
ndarray
p4
(I0
tS'b'
tRp5
(I1
(I2
tcnumpy
dtype
p6
(S'f4'
I0
I1
tRp7
(I3
S'<'
NNNI-1
I-1
I0
tbI00
S'P\rJ?\xc3\xcaW>'
tbtp8
a(S'/data/ad6813/pipe-data/Blue100/198107.jpg'
p9
g3
(g4
(I0
tS'b'
tRp10
(I1
(I2
tg7
I00
S'>G=?\x82q\x85>'
tbtp11
a(S'/data/ad6813/pipe-data/Blue100/198117.jpg'
p12
g3
(g4
(I0
tS'b'
tRp13
(I1
(I2
tg7
I00
S'\x92\x85\x01?\xdb\xf4\xfc>'
tbtp14
a(S'/data/ad6813/pipe-data/Blue100/198118.jpg'
p15
g3
(g4
(I0
tS'b'
tRp16
(I1
(I2
tg7
I00
S'\xfb\xe5D?\x1dhl>'
tbtp17
a(S'/data/ad6813/pipe-data/Blue100/198121.jpg'
p18
g3
(g4
(I0
tS'b'
tRp19
(I1
(I2
tg7
I00
S'\xf5.D?&Do>'
tbtp20
a(S'/data/ad6813/pipe-data/Blue100/198122.jpg'
p21
g3
(g4
(I0
tS'b'
tRp22
(I1
(I2
tg7
I00
S'FR@?\xee\xb6~>'
tbtp23
a(S'/data/ad6813/pipe-data/Blue100/198132.jpg'
p24
g3
(g4
(I0
tS'b'
tRp25
(I1
(I2
tg7
I00
S'\xebGq?C\x81k='
tbtp26
a(S'/data/ad6813/pipe-data/Blue100/198134.jpg'
p27
g3
(g4
(I0
tS'b'
tRp28
(I1
(I2
tg7
I00
S'\x86\xea\xd1>\xbe\n\x17?'
tbtp29
a(S'/data/ad6813/pipe-data/Blue100/198140.jpg'
p30
g3
(g4
(I0
tS'b'
tRp31
(I1
(I2
tg7
I00
S'\x18\x9fj?:\x07\xab='
tbtp32
a(S'/data/ad6813/pipe-data/Blue100/198143.jpg'
p33
g3
(g4
(I0
tS'b'
tRp34
(I1
(I2
tg7
I00
S'9\x97G?%\xa3a>'
tbtp35
a(S'/data/ad6813/pipe-data/Blue100/198164.jpg'
p36
g3
(g4
(I0
tS'b'
tRp37
(I1
(I2
tg7
I00
S'\xc5\xd7\xdc>\x1f\x94\x11?'
tbtp38
a(S'/data/ad6813/pipe-data/Blue100/198170.jpg'
p39
g3
(g4
(I0
tS'b'
tRp40
(I1
(I2
tg7
I00
S'\x93\x94_?\xb2\xad\x01>'
tbtp41
a(S'/data/ad6813/pipe-data/Blue100/198174.jpg'
p42
g3
(g4
(I0
tS'b'
tRp43
(I1
(I2
tg7
I00
S'\x1d\xe3R?\x8fs4>'
tbtp44
a(S'/data/ad6813/pipe-data/Blue100/198176.jpg'
p45
g3
(g4
(I0
tS'b'
tRp46
(I1
(I2
tg7
I00
S'CZ\x18?}K\xcf>'
tbtp47
a(S'/data/ad6813/pipe-data/Blue100/198183.jpg'
p48
g3
(g4
(I0
tS'b'
tRp49
(I1
(I2
tg7
I00
S'3.\xca>\xe5\xe8\x1a?'
tbtp50
a(S'/data/ad6813/pipe-data/Blue100/198190.jpg'
p51
g3
(g4
(I0
tS'b'
tRp52
(I1
(I2
tg7
I00
S'\xc6BS?\xe3\xf42>'
tbtp53
a(S'/data/ad6813/pipe-data/Blue100/198210.jpg'
p54
g3
(g4
(I0
tS'b'
tRp55
(I1
(I2
tg7
I00
S'0)N?C[G>'
tbtp56
a(S'/data/ad6813/pipe-data/Blue100/198211.jpg'
p57
g3
(g4
(I0
tS'b'
tRp58
(I1
(I2
tg7
I00
S'*\x06I?S\xe7[>'
tbtp59
a(S'/data/ad6813/pipe-data/Blue100/198214.jpg'
p60
g3
(g4
(I0
tS'b'
tRp61
(I1
(I2
tg7
I00
S'\xc88Y?\xde\x1c\x1b>'
tbtp62
a(S'/data/ad6813/pipe-data/Blue100/198215.jpg'
p63
g3
(g4
(I0
tS'b'
tRp64
(I1
(I2
tg7
I00
S';\x8c[?\x14\xcf\x11>'
tbtp65
a(S'/data/ad6813/pipe-data/Blue100/198218.jpg'
p66
g3
(g4
(I0
tS'b'
tRp67
(I1
(I2
tg7
I00
S'\x1c\xa1;?\xc5\xbd\x88>'
tbtp68
a(S'/data/ad6813/pipe-data/Blue100/198219.jpg'
p69
g3
(g4
(I0
tS'b'
tRp70
(I1
(I2
tg7
I00
S'\xb5z ?\x9a\n\xbf>'
tbtp71
a(S'/data/ad6813/pipe-data/Blue100/198222.jpg'
p72
g3
(g4
(I0
tS'b'
tRp73
(I1
(I2
tg7
I00
S'\x13\x8cV?\xae\xcf%>'
tbtp74
a(S'/data/ad6813/pipe-data/Blue100/198223.jpg'
p75
g3
(g4
(I0
tS'b'
tRp76
(I1
(I2
tg7
I00
S"\xf4\xda'?\x18J\xb0>"
tbtp77
a(S'/data/ad6813/pipe-data/Blue100/198226.jpg'
p78
g3
(g4
(I0
tS'b'
tRp79
(I1
(I2
tg7
I00
S'\xfaM9?\x07d\x8d>'
tbtp80
a(S'/data/ad6813/pipe-data/Blue100/198228.jpg'
p81
g3
(g4
(I0
tS'b'
tRp82
(I1
(I2
tg7
I00
S'\xd5\x87\x1f?T\xf0\xc0>'
tbtp83
a(S'/data/ad6813/pipe-data/Blue100/198229.jpg'
p84
g3
(g4
(I0
tS'b'
tRp85
(I1
(I2
tg7
I00
S'\xd2\x82@?\xb5\xf4}>'
tbtp86
a(S'/data/ad6813/pipe-data/Blue100/198239.jpg'
p87
g3
(g4
(I0
tS'b'
tRp88
(I1
(I2
tg7
I00
S'\xbf\x7f5?\x82\x00\x95>'
tbtp89
a(S'/data/ad6813/pipe-data/Blue100/198242.jpg'
p90
g3
(g4
(I0
tS'b'
tRp91
(I1
(I2
tg7
I00
S'C\x9dx>\xb0\xd8A?'
tbtp92
a(S'/data/ad6813/pipe-data/Blue100/198245.jpg'
p93
g3
(g4
(I0
tS'b'
tRp94
(I1
(I2
tg7
I00
S'"\n+?\xbc\xeb\xa9>'
tbtp95
a(S'/data/ad6813/pipe-data/Blue100/198249.jpg'
p96
g3
(g4
(I0
tS'b'
tRp97
(I1
(I2
tg7
I00
S'4\xef2?\x99!\x9a>'
tbtp98
a(S'/data/ad6813/pipe-data/Blue100/198262.jpg'
p99
g3
(g4
(I0
tS'b'
tRp100
(I1
(I2
tg7
I00
S'.\xa9e?\x96\xb6\xd2='
tbtp101
a(S'/data/ad6813/pipe-data/Blue100/198265.jpg'
p102
g3
(g4
(I0
tS'b'
tRp103
(I1
(I2
tg7
I00
S'\xdd\xf1\t?J\x1c\xec>'
tbtp104
a(S'/data/ad6813/pipe-data/Blue100/198270.jpg'
p105
g3
(g4
(I0
tS'b'
tRp106
(I1
(I2
tg7
I00
S'\xeb\xe6\xf6>\x8a\x8c\x04?'
tbtp107
a(S'/data/ad6813/pipe-data/Blue100/198271.jpg'
p108
g3
(g4
(I0
tS'b'
tRp109
(I1
(I2
tg7
I00
S'\xf2\xcc(?\x1cf\xae>'
tbtp110
a(S'/data/ad6813/pipe-data/Blue100/198280.jpg'
p111
g3
(g4
(I0
tS'b'
tRp112
(I1
(I2
tg7
I00
S'\xf647?\x15\x96\x91>'
tbtp113
a(S'/data/ad6813/pipe-data/Blue100/198291.jpg'
p114
g3
(g4
(I0
tS'b'
tRp115
(I1
(I2
tg7
I00
S'.\xed:?\xa5%\x8a>'
tbtp116
a(S'/data/ad6813/pipe-data/Blue100/198297.jpg'
p117
g3
(g4
(I0
tS'b'
tRp118
(I1
(I2
tg7
I00
S'\x06\x15=?\xf4\xd5\x85>'
tbtp119
a(S'/data/ad6813/pipe-data/Blue100/198307.jpg'
p120
g3
(g4
(I0
tS'b'
tRp121
(I1
(I2
tg7
I00
S'jT=?+W\x85>'
tbtp122
a(S'/data/ad6813/pipe-data/Blue100/198310.jpg'
p123
g3
(g4
(I0
tS'b'
tRp124
(I1
(I2
tg7
I00
S'K\xc0\xce>\xd9\x9f\x18?'
tbtp125
a(S'/data/ad6813/pipe-data/Blue100/198311.jpg'
p126
g3
(g4
(I0
tS'b'
tRp127
(I1
(I2
tg7
I00
S'\x86(\xd7>\xbck\x14?'
tbtp128
a(S'/data/ad6813/pipe-data/Blue100/198317.jpg'
p129
g3
(g4
(I0
tS'b'
tRp130
(I1
(I2
tg7
I00
S'R\x8c\xc8>\xd7\xb9\x1b?'
tbtp131
a(S'/data/ad6813/pipe-data/Blue100/198321.jpg'
p132
g3
(g4
(I0
tS'b'
tRp133
(I1
(I2
tg7
I00
S'\xe0T\x82>\x90\xd5>?'
tbtp134
a(S'/data/ad6813/pipe-data/Blue100/198322.jpg'
p135
g3
(g4
(I0
tS'b'
tRp136
(I1
(I2
tg7
I00
S'\xde\xe7\x04?E0\xf6>'
tbtp137
a(S'/data/ad6813/pipe-data/Blue100/198328.jpg'
p138
g3
(g4
(I0
tS'b'
tRp139
(I1
(I2
tg7
I00
S'\x0f\x8b,?\xe3\xe9\xa6>'
tbtp140
a(S'/data/ad6813/pipe-data/Blue100/198330.jpg'
p141
g3
(g4
(I0
tS'b'
tRp142
(I1
(I2
tg7
I00
S'\xff\nH?\x05\xd4_>'
tbtp143
a(S'/data/ad6813/pipe-data/Blue100/198331.jpg'
p144
g3
(g4
(I0
tS'b'
tRp145
(I1
(I2
tg7
I00
S']O[?\x8d\xc2\x12>'
tbtp146
a(S'/data/ad6813/pipe-data/Blue100/198339.jpg'
p147
g3
(g4
(I0
tS'b'
tRp148
(I1
(I2
tg7
I00
S'\x9e\xc5\xdf>2\x1d\x10?'
tbtp149
a(S'/data/ad6813/pipe-data/Blue100/198344.jpg'
p150
g3
(g4
(I0
tS'b'
tRp151
(I1
(I2
tg7
I00
S'\xa6\x80!?\xb4\xfe\xbc>'
tbtp152
a(S'/data/ad6813/pipe-data/Blue100/198355.jpg'
p153
g3
(g4
(I0
tS'b'
tRp154
(I1
(I2
tg7
I00
S'f\x10W?e\xbe#>'
tbtp155
a(S'/data/ad6813/pipe-data/Blue100/198357.jpg'
p156
g3
(g4
(I0
tS'b'
tRp157
(I1
(I2
tg7
I00
S'\x0bD]?\xcd\xef\n>'
tbtp158
a(S'/data/ad6813/pipe-data/Blue100/198360.jpg'
p159
g3
(g4
(I0
tS'b'
tRp160
(I1
(I2
tg7
I00
S'\x08VX?\xe5\xa7\x1e>'
tbtp161
a(S'/data/ad6813/pipe-data/Blue100/198363.jpg'
p162
g3
(g4
(I0
tS'b'
tRp163
(I1
(I2
tg7
I00
S'^hg?\x15\xbd\xc4='
tbtp164
a(S'/data/ad6813/pipe-data/Blue100/198364.jpg'
p165
g3
(g4
(I0
tS'b'
tRp166
(I1
(I2
tg7
I00
S'\xeb\x18f?\xa88\xcf='
tbtp167
a(S'/data/ad6813/pipe-data/Blue100/198365.jpg'
p168
g3
(g4
(I0
tS'b'
tRp169
(I1
(I2
tg7
I00
S'3\xc25?\x9c{\x94>'
tbtp170
a(S'/data/ad6813/pipe-data/Blue100/198368.jpg'
p171
g3
(g4
(I0
tS'b'
tRp172
(I1
(I2
tg7
I00
S'\xf9\xa4(?\x0e\xb6\xae>'
tbtp173
a(S'/data/ad6813/pipe-data/Blue100/198373.jpg'
p174
g3
(g4
(I0
tS'b'
tRp175
(I1
(I2
tg7
I00
S'\x04\xc3B?\xeb\xf3t>'
tbtp176
a(S'/data/ad6813/pipe-data/Blue100/198377.jpg'
p177
g3
(g4
(I0
tS'b'
tRp178
(I1
(I2
tg7
I00
S'U\xb4\x8c>\xd5\xa59?'
tbtp179
a(S'/data/ad6813/pipe-data/Blue100/198379.jpg'
p180
g3
(g4
(I0
tS'b'
tRp181
(I1
(I2
tg7
I00
S'\xfb%.?\n\xb4\xa3>'
tbtp182
a(S'/data/ad6813/pipe-data/Blue100/198382.jpg'
p183
g3
(g4
(I0
tS'b'
tRp184
(I1
(I2
tg7
I00
S'\xad\xfc\x95>\xa9\x015?'
tbtp185
a(S'/data/ad6813/pipe-data/Blue100/198388.jpg'
p186
g3
(g4
(I0
tS'b'
tRp187
(I1
(I2
tg7
I00
S'([<?\xaeI\x87>'
tbtp188
a(S'/data/ad6813/pipe-data/Blue100/198389.jpg'
p189
g3
(g4
(I0
tS'b'
tRp190
(I1
(I2
tg7
I00
S'\xb5\x80\xba>\xa6\xbf"?'
tbtp191
a(S'/data/ad6813/pipe-data/Blue100/198395.jpg'
p192
g3
(g4
(I0
tS'b'
tRp193
(I1
(I2
tg7
I00
S'\x1b\xb4Y?\x93/\x19>'
tbtp194
a(S'/data/ad6813/pipe-data/Blue100/198396.jpg'
p195
g3
(g4
(I0
tS'b'
tRp196
(I1
(I2
tg7
I00
S"'\xaa\x06?\xb3\xab\xf2>"
tbtp197
a(S'/data/ad6813/pipe-data/Blue100/198398.jpg'
p198
g3
(g4
(I0
tS'b'
tRp199
(I1
(I2
tg7
I00
S'6\xbfH? \x03]>'
tbtp200
a(S'/data/ad6813/pipe-data/Blue100/198407.jpg'
p201
g3
(g4
(I0
tS'b'
tRp202
(I1
(I2
tg7
I00
S'Nw<?h\x11\x87>'
tbtp203
a(S'/data/ad6813/pipe-data/Blue100/198410.jpg'
p204
g3
(g4
(I0
tS'b'
tRp205
(I1
(I2
tg7
I00
S'\x18\x8fD?\x9e\xc3m>'
tbtp206
a(S'/data/ad6813/pipe-data/Blue100/198411.jpg'
p207
g3
(g4
(I0
tS'b'
tRp208
(I1
(I2
tg7
I00
S'\xceRj?\x8ei\xad='
tbtp209
a(S'/data/ad6813/pipe-data/Blue100/198415.jpg'
p210
g3
(g4
(I0
tS'b'
tRp211
(I1
(I2
tg7
I00
S'\xd5\xddN?\xac\x88D>'
tbtp212
a(S'/data/ad6813/pipe-data/Blue100/198442.jpg'
p213
g3
(g4
(I0
tS'b'
tRp214
(I1
(I2
tg7
I00
S'\xea>T?R\x04/>'
tbtp215
a(S'/data/ad6813/pipe-data/Blue100/198456.jpg'
p216
g3
(g4
(I0
tS'b'
tRp217
(I1
(I2
tg7
I00
S':\x06]?\x11\xe7\x0b>'
tbtp218
a(S'/data/ad6813/pipe-data/Blue100/198470.jpg'
p219
g3
(g4
(I0
tS'b'
tRp220
(I1
(I2
tg7
I00
S'I\xb8\x1d?n\x8f\xc4>'
tbtp221
a(S'/data/ad6813/pipe-data/Blue100/198471.jpg'
p222
g3
(g4
(I0
tS'b'
tRp223
(I1
(I2
tg7
I00
S'Xe+?N5\xa9>'
tbtp224
a(S'/data/ad6813/pipe-data/Blue100/198474.jpg'
p225
g3
(g4
(I0
tS'b'
tRp226
(I1
(I2
tg7
I00
S'\xbc\xfb)?\x8d\x08\xac>'
tbtp227
a(S'/data/ad6813/pipe-data/Blue100/198475.jpg'
p228
g3
(g4
(I0
tS'b'
tRp229
(I1
(I2
tg7
I00
S'5\xceT>r\xccJ?'
tbtp230
a(S'/data/ad6813/pipe-data/Blue100/198476.jpg'
p231
g3
(g4
(I0
tS'b'
tRp232
(I1
(I2
tg7
I00
S'\x16\x99I?\xad\x9bY>'
tbtp233
a(S'/data/ad6813/pipe-data/Blue100/198479.jpg'
p234
g3
(g4
(I0
tS'b'
tRp235
(I1
(I2
tg7
I00
S'\xbd\xb7F?\x08!e>'
tbtp236
a(S'/data/ad6813/pipe-data/Blue100/198481.jpg'
p237
g3
(g4
(I0
tS'b'
tRp238
(I1
(I2
tg7
I00
S'\xa9\x86I?^\xe5Y>'
tbtp239
a(S'/data/ad6813/pipe-data/Blue100/198509.jpg'
p240
g3
(g4
(I0
tS'b'
tRp241
(I1
(I2
tg7
I00
S'~\xd7X?\x08\xa2\x1c>'
tbtp242
a(S'/data/ad6813/pipe-data/Blue100/198518.jpg'
p243
g3
(g4
(I0
tS'b'
tRp244
(I1
(I2
tg7
I00
S'\xd4$-?V\xb6\xa5>'
tbtp245
a(S'/data/ad6813/pipe-data/Blue100/198519.jpg'
p246
g3
(g4
(I0
tS'b'
tRp247
(I1
(I2
tg7
I00
S'\x85\xd6\xc7>\xbf\x14\x1c?'
tbtp248
a(S'/data/ad6813/pipe-data/Blue100/198528.jpg'
p249
g3
(g4
(I0
tS'b'
tRp250
(I1
(I2
tg7
I00
S'\x12\xfc\xf6>\xf7\x81\x04?'
tbtp251
a(S'/data/ad6813/pipe-data/Blue100/198529.jpg'
p252
g3
(g4
(I0
tS'b'
tRp253
(I1
(I2
tg7
I00
S'JW\x1f>.*X?'
tbtp254
a(S'/data/ad6813/pipe-data/Blue100/198532.jpg'
p255
g3
(g4
(I0
tS'b'
tRp256
(I1
(I2
tg7
I00
S'\x8a\x01-?\xec\xfc\xa5>'
tbtp257
a(S'/data/ad6813/pipe-data/Blue100/198540.jpg'
p258
g3
(g4
(I0
tS'b'
tRp259
(I1
(I2
tg7
I00
S'la,?(=\xa7>'
tbtp260
a(S'/data/ad6813/pipe-data/Blue100/198556.jpg'
p261
g3
(g4
(I0
tS'b'
tRp262
(I1
(I2
tg7
I00
S'\xc2\xe4J?\xf3lT>'
tbtp263
a(S'/data/ad6813/pipe-data/Blue100/198600.jpg'
p264
g3
(g4
(I0
tS'b'
tRp265
(I1
(I2
tg7
I00
S'\xba\x9a\xfd>\xa42\x01?'
tbtp266
a(S'/data/ad6813/pipe-data/Blue100/198601.jpg'
p267
g3
(g4
(I0
tS'b'
tRp268
(I1
(I2
tg7
I00
S'p\x92\x05? \xdb\xf4>'
tbtp269
a(S'/data/ad6813/pipe-data/Blue100/198604.jpg'
p270
g3
(g4
(I0
tS'b'
tRp271
(I1
(I2
tg7
I00
S'\xfb\xf4Y?\x0e,\x18>'
tbtp272
a(S'/data/ad6813/pipe-data/Blue100/198608.jpg'
p273
g3
(g4
(I0
tS'b'
tRp274
(I1
(I2
tg7
I00
S"\r'E?\xc8ck>"
tbtp275
a(S'/data/ad6813/pipe-data/Blue100/198610.jpg'
p276
g3
(g4
(I0
tS'b'
tRp277
(I1
(I2
tg7
I00
S'R]??ZE\x81>'
tbtp278
a(S'/data/ad6813/pipe-data/Blue100/198620.jpg'
p279
g3
(g4
(I0
tS'b'
tRp280
(I1
(I2
tg7
I00
S'\xc7G#?op\xb9>'
tbtp281
a(S'/data/ad6813/pipe-data/Blue100/198622.jpg'
p282
g3
(g4
(I0
tS'b'
tRp283
(I1
(I2
tg7
I00
S'\xd2\x9aD?\xbe\x94m>'
tbtp284
a(S'/data/ad6813/pipe-data/Blue100/198627.jpg'
p285
g3
(g4
(I0
tS'b'
tRp286
(I1
(I2
tg7
I00
S'\xc3\xe1[?\xf6x\x10>'
tbtp287
a(S'/data/ad6813/pipe-data/Blue100/198629.jpg'
p288
g3
(g4
(I0
tS'b'
tRp289
(I1
(I2
tg7
I00
S'"\xb5,?\xba\x95\xa6>'
tbtp290
a(S'/data/ad6813/pipe-data/Blue100/198630.jpg'
p291
g3
(g4
(I0
tS'b'
tRp292
(I1
(I2
tg7
I00
S'\xe6\x966?5\xd2\x92>'
tbtp293
a(S'/data/ad6813/pipe-data/Blue100/198637.jpg'
p294
g3
(g4
(I0
tS'b'
tRp295
(I1
(I2
tg7
I00
S'\xe6)\x19?0\xac\xcd>'
tbtp296
a(S'/data/ad6813/pipe-data/Blue100/198638.jpg'
p297
g3
(g4
(I0
tS'b'
tRp298
(I1
(I2
tg7
I00
S'\x85RA?\xe5\xb5z>'
tbtp299
a(S'/data/ad6813/pipe-data/Blue100/198640.jpg'
p300
g3
(g4
(I0
tS'b'
tRp301
(I1
(I2
tg7
I00
S'+5N?Y+G>'
tbtp302
a(S'/data/ad6813/pipe-data/Blue100/198653.jpg'
p303
g3
(g4
(I0
tS'b'
tRp304
(I1
(I2
tg7
I00
S'H$#?n\xb7\xb9>'
tbtp305
a.