(lp1
(S'/data/ad6813/pipe-data/Blue100/198098.jpg'
p2
cnumpy.core.multiarray
_reconstruct
p3
(cnumpy
ndarray
p4
(I0
tS'b'
tRp5
(I1
(I2
tcnumpy
dtype
p6
(S'f4'
I0
I1
tRp7
(I3
S'<'
NNNI-1
I-1
I0
tbI00
S'\x08%~?N|\xed;'
tbtp8
a(S'/data/ad6813/pipe-data/Blue100/198107.jpg'
p9
g3
(g4
(I0
tS'b'
tRp10
(I1
(I2
tg7
I00
S'\x82:\x7f?\xd8~E;'
tbtp11
a(S'/data/ad6813/pipe-data/Blue100/198117.jpg'
p12
g3
(g4
(I0
tS'b'
tRp13
(I1
(I2
tg7
I00
S'C\xca~?;\xde\x9a;'
tbtp14
a(S'/data/ad6813/pipe-data/Blue100/198118.jpg'
p15
g3
(g4
(I0
tS'b'
tRp16
(I1
(I2
tg7
I00
S'\xc3\xe1~?#\x1e\x8f;'
tbtp17
a(S'/data/ad6813/pipe-data/Blue100/198121.jpg'
p18
g3
(g4
(I0
tS'b'
tRp19
(I1
(I2
tg7
I00
S'\x93-\x7f?6nR;'
tbtp20
a(S'/data/ad6813/pipe-data/Blue100/198122.jpg'
p21
g3
(g4
(I0
tS'b'
tRp22
(I1
(I2
tg7
I00
S'#\xccv?\xde=\x13='
tbtp23
a(S'/data/ad6813/pipe-data/Blue100/198132.jpg'
p24
g3
(g4
(I0
tS'b'
tRp25
(I1
(I2
tg7
I00
S'\xc3O~?\x1e\x1f\xd8;'
tbtp26
a(S'/data/ad6813/pipe-data/Blue100/198134.jpg'
p27
g3
(g4
(I0
tS'b'
tRp28
(I1
(I2
tg7
I00
S'\xa0\xb5\x11?\xc0\x94\xdc>'
tbtp29
a(S'/data/ad6813/pipe-data/Blue100/198140.jpg'
p30
g3
(g4
(I0
tS'b'
tRp31
(I1
(I2
tg7
I00
S'\xe5\xf9x?b\xc3\xe0<'
tbtp32
a(S'/data/ad6813/pipe-data/Blue100/198143.jpg'
p33
g3
(g4
(I0
tS'b'
tRp34
(I1
(I2
tg7
I00
S"\xd8Z\x7f?)'%;"
tbtp35
a(S'/data/ad6813/pipe-data/Blue100/198164.jpg'
p36
g3
(g4
(I0
tS'b'
tRp37
(I1
(I2
tg7
I00
S'\x86\xe9N?\xe8YD>'
tbtp38
a(S'/data/ad6813/pipe-data/Blue100/198170.jpg'
p39
g3
(g4
(I0
tS'b'
tRp40
(I1
(I2
tg7
I00
S' \xb4\x7f?\xa2\xbe\x97:'
tbtp41
a(S'/data/ad6813/pipe-data/Blue100/198174.jpg'
p42
g3
(g4
(I0
tS'b'
tRp43
(I1
(I2
tg7
I00
S'P\xb8{?\xdb\xf5\x88<'
tbtp44
a(S'/data/ad6813/pipe-data/Blue100/198176.jpg'
p45
g3
(g4
(I0
tS'b'
tRp46
(I1
(I2
tg7
I00
S'\x9d\xc2\xeb>\xb1\x1e\n?'
tbtp47
a(S'/data/ad6813/pipe-data/Blue100/198183.jpg'
p48
g3
(g4
(I0
tS'b'
tRp49
(I1
(I2
tg7
I00
S'\x06\xdb\x11?\xf5I\xdc>'
tbtp50
a(S'/data/ad6813/pipe-data/Blue100/198190.jpg'
p51
g3
(g4
(I0
tS'b'
tRp52
(I1
(I2
tg7
I00
S'\xa5\xe0\x7f?\xb3\xde\xfa9'
tbtp53
a(S'/data/ad6813/pipe-data/Blue100/198210.jpg'
p54
g3
(g4
(I0
tS'b'
tRp55
(I1
(I2
tg7
I00
S'\xf8\x11~?\x8d\x03\xf7;'
tbtp56
a(S'/data/ad6813/pipe-data/Blue100/198211.jpg'
p57
g3
(g4
(I0
tS'b'
tRp58
(I1
(I2
tg7
I00
S'5&~?\xd6\xe5\xec;'
tbtp59
a(S'/data/ad6813/pipe-data/Blue100/198214.jpg'
p60
g3
(g4
(I0
tS'b'
tRp61
(I1
(I2
tg7
I00
S'\x00\xb1\x7f?-\xff\x9d:'
tbtp62
a(S'/data/ad6813/pipe-data/Blue100/198215.jpg'
p63
g3
(g4
(I0
tS'b'
tRp64
(I1
(I2
tg7
I00
S'\xe8\x11q?\x96\xe1n='
tbtp65
a(S'/data/ad6813/pipe-data/Blue100/198218.jpg'
p66
g3
(g4
(I0
tS'b'
tRp67
(I1
(I2
tg7
I00
S'\xfa\xa7\x7f?\x17\r\xb0:'
tbtp68
a(S'/data/ad6813/pipe-data/Blue100/198219.jpg'
p69
g3
(g4
(I0
tS'b'
tRp70
(I1
(I2
tg7
I00
S'\xc3\xec\x7f?#\xe2\x999'
tbtp71
a(S'/data/ad6813/pipe-data/Blue100/198222.jpg'
p72
g3
(g4
(I0
tS'b'
tRp73
(I1
(I2
tg7
I00
S'\x9bY~?\xce2\xd3;'
tbtp74
a(S'/data/ad6813/pipe-data/Blue100/198223.jpg'
p75
g3
(g4
(I0
tS'b'
tRp76
(I1
(I2
tg7
I00
S'\x03\xa2c?\xeb\xef\xe2='
tbtp77
a(S'/data/ad6813/pipe-data/Blue100/198226.jpg'
p78
g3
(g4
(I0
tS'b'
tRp79
(I1
(I2
tg7
I00
S'\x03\xcb{?\xa9\x9f\x86<'
tbtp80
a(S'/data/ad6813/pipe-data/Blue100/198228.jpg'
p81
g3
(g4
(I0
tS'b'
tRp82
(I1
(I2
tg7
I00
S'3O}?~2,<'
tbtp83
a(S'/data/ad6813/pipe-data/Blue100/198229.jpg'
p84
g3
(g4
(I0
tS'b'
tRp85
(I1
(I2
tg7
I00
S'\x807|?\x88\x1fr<'
tbtp86
a(S'/data/ad6813/pipe-data/Blue100/198239.jpg'
p87
g3
(g4
(I0
tS'b'
tRp88
(I1
(I2
tg7
I00
S'%\x10\x7f?\xb2\xdbo;'
tbtp89
a(S'/data/ad6813/pipe-data/Blue100/198242.jpg'
p90
g3
(g4
(I0
tS'b'
tRp91
(I1
(I2
tg7
I00
S'\xa3\x1a\r?\xba\xca\xe5>'
tbtp92
a(S'/data/ad6813/pipe-data/Blue100/198245.jpg'
p93
g3
(g4
(I0
tS'b'
tRp94
(I1
(I2
tg7
I00
S'0\xbb\x7f?\\\x9f\x89:'
tbtp95
a(S'/data/ad6813/pipe-data/Blue100/198249.jpg'
p96
g3
(g4
(I0
tS'b'
tRp97
(I1
(I2
tg7
I00
S'\xd3\xba\x7f?\xa6Z\x8a:'
tbtp98
a(S'/data/ad6813/pipe-data/Blue100/198262.jpg'
p99
g3
(g4
(I0
tS'b'
tRp100
(I1
(I2
tg7
I00
S'C\xa4\x7f?#x\xb7:'
tbtp101
a(S'/data/ad6813/pipe-data/Blue100/198265.jpg'
p102
g3
(g4
(I0
tS'b'
tRp103
(I1
(I2
tg7
I00
S'\x97;\x02?\xd2\x88\xfb>'
tbtp104
a(S'/data/ad6813/pipe-data/Blue100/198270.jpg'
p105
g3
(g4
(I0
tS'b'
tRp106
(I1
(I2
tg7
I00
S'}\xa3\x19?\x05\xb9\xcc>'
tbtp107
a(S'/data/ad6813/pipe-data/Blue100/198271.jpg'
p108
g3
(g4
(I0
tS'b'
tRp109
(I1
(I2
tg7
I00
S'\xa4\xa4\x1b?\xb5\xb6\xc8>'
tbtp110
a(S'/data/ad6813/pipe-data/Blue100/198280.jpg'
p111
g3
(g4
(I0
tS'b'
tRp112
(I1
(I2
tg7
I00
S'\xe2\xf5\x7f?\xe3\xdc!9'
tbtp113
a(S'/data/ad6813/pipe-data/Blue100/198291.jpg'
p114
g3
(g4
(I0
tS'b'
tRp115
(I1
(I2
tg7
I00
S'\x05 x?k\xff\xfb<'
tbtp116
a(S'/data/ad6813/pipe-data/Blue100/198297.jpg'
p117
g3
(g4
(I0
tS'b'
tRp118
(I1
(I2
tg7
I00
S'5\xacJ?+OU>'
tbtp119
a(S'/data/ad6813/pipe-data/Blue100/198307.jpg'
p120
g3
(g4
(I0
tS'b'
tRp121
(I1
(I2
tg7
I00
S'\x98Ka>\x1b\xadG?'
tbtp122
a(S'/data/ad6813/pipe-data/Blue100/198310.jpg'
p123
g3
(g4
(I0
tS'b'
tRp124
(I1
(I2
tg7
I00
S'0N\xf1>\xe8X\x07?'
tbtp125
a(S'/data/ad6813/pipe-data/Blue100/198311.jpg'
p126
g3
(g4
(I0
tS'b'
tRp127
(I1
(I2
tg7
I00
S'?\x8f\x17?\x80\xe1\xd0>'
tbtp128
a(S'/data/ad6813/pipe-data/Blue100/198317.jpg'
p129
g3
(g4
(I0
tS'b'
tRp130
(I1
(I2
tg7
I00
S'N\x98\x0e?e\xcf\xe2>'
tbtp131
a(S'/data/ad6813/pipe-data/Blue100/198321.jpg'
p132
g3
(g4
(I0
tS'b'
tRp133
(I1
(I2
tg7
I00
S"d\xec4?8'\x96>"
tbtp134
a(S'/data/ad6813/pipe-data/Blue100/198322.jpg'
p135
g3
(g4
(I0
tS'b'
tRp136
(I1
(I2
tg7
I00
S'7\xed\xc7>f\t\x1c?'
tbtp137
a(S'/data/ad6813/pipe-data/Blue100/198328.jpg'
p138
g3
(g4
(I0
tS'b'
tRp139
(I1
(I2
tg7
I00
S'\x88\x91c?\xcbs\xe3='
tbtp140
a(S'/data/ad6813/pipe-data/Blue100/198330.jpg'
p141
g3
(g4
(I0
tS'b'
tRp142
(I1
(I2
tg7
I00
S'\x10\xdf~?\xe4w\x90;'
tbtp143
a(S'/data/ad6813/pipe-data/Blue100/198331.jpg'
p144
g3
(g4
(I0
tS'b'
tRp145
(I1
(I2
tg7
I00
S'\xbe\x90~?\r\xa0\xb7;'
tbtp146
a(S'/data/ad6813/pipe-data/Blue100/198339.jpg'
p147
g3
(g4
(I0
tS'b'
tRp148
(I1
(I2
tg7
I00
S'\xccU\t?fT\xed>'
tbtp149
a(S'/data/ad6813/pipe-data/Blue100/198344.jpg'
p150
g3
(g4
(I0
tS'b'
tRp151
(I1
(I2
tg7
I00
S'\x10\xdb~?\xc6w\x92;'
tbtp152
a(S'/data/ad6813/pipe-data/Blue100/198355.jpg'
p153
g3
(g4
(I0
tS'b'
tRp154
(I1
(I2
tg7
I00
S'\x82\xc9~?\x06?\x9b;'
tbtp155
a(S'/data/ad6813/pipe-data/Blue100/198357.jpg'
p156
g3
(g4
(I0
tS'b'
tRp157
(I1
(I2
tg7
I00
S'\xa6\x10\x7f?\xd6Zo;'
tbtp158
a(S'/data/ad6813/pipe-data/Blue100/198360.jpg'
p159
g3
(g4
(I0
tS'b'
tRp160
(I1
(I2
tg7
I00
S'\xbd\xdc}?y\xd0\x08<'
tbtp161
a(S'/data/ad6813/pipe-data/Blue100/198363.jpg'
p162
g3
(g4
(I0
tS'b'
tRp163
(I1
(I2
tg7
I00
S'\xc3\\~?\xfb\x9e\xd1;'
tbtp164
a(S'/data/ad6813/pipe-data/Blue100/198364.jpg'
p165
g3
(g4
(I0
tS'b'
tRp166
(I1
(I2
tg7
I00
S'\xfe\xc1~?^\x00\x9f;'
tbtp167
a(S'/data/ad6813/pipe-data/Blue100/198365.jpg'
p168
g3
(g4
(I0
tS'b'
tRp169
(I1
(I2
tg7
I00
S'\xa8\xb7{?\xea\n\x89<'
tbtp170
a(S'/data/ad6813/pipe-data/Blue100/198368.jpg'
p171
g3
(g4
(I0
tS'b'
tRp172
(I1
(I2
tg7
I00
S'\xe5)}?\t\x875<'
tbtp173
a(S'/data/ad6813/pipe-data/Blue100/198373.jpg'
p174
g3
(g4
(I0
tS'b'
tRp175
(I1
(I2
tg7
I00
S'5\x02W?6\xf7#>'
tbtp176
a(S'/data/ad6813/pipe-data/Blue100/198377.jpg'
p177
g3
(g4
(I0
tS'b'
tRp178
(I1
(I2
tg7
I00
S'[\x85\xbb>Q="?'
tbtp179
a(S'/data/ad6813/pipe-data/Blue100/198379.jpg'
p180
g3
(g4
(I0
tS'b'
tRp181
(I1
(I2
tg7
I00
S']\xa3}?\xc6(\x17<'
tbtp182
a(S'/data/ad6813/pipe-data/Blue100/198382.jpg'
p183
g3
(g4
(I0
tS'b'
tRp184
(I1
(I2
tg7
I00
S'.\xd4\x0f?\xa6W\xe0>'
tbtp185
a(S'/data/ad6813/pipe-data/Blue100/198388.jpg'
p186
g3
(g4
(I0
tS'b'
tRp187
(I1
(I2
tg7
I00
S'>\xd5\x7f?\xd7\t+:'
tbtp188
a(S'/data/ad6813/pipe-data/Blue100/198389.jpg'
p189
g3
(g4
(I0
tS'b'
tRp190
(I1
(I2
tg7
I00
S'\xb9\x06\x1f?\x8a\xf2\xc1>'
tbtp191
a(S'/data/ad6813/pipe-data/Blue100/198395.jpg'
p192
g3
(g4
(I0
tS'b'
tRp193
(I1
(I2
tg7
I00
S'\xb3gy?\x8a\t\xd3<'
tbtp194
a(S'/data/ad6813/pipe-data/Blue100/198396.jpg'
p195
g3
(g4
(I0
tS'b'
tRp196
(I1
(I2
tg7
I00
S'\xca\x11\xf5>\x1bw\x05?'
tbtp197
a(S'/data/ad6813/pipe-data/Blue100/198398.jpg'
p198
g3
(g4
(I0
tS'b'
tRp199
(I1
(I2
tg7
I00
S'Wz\x04?R\x0b\xf7>'
tbtp200
a(S'/data/ad6813/pipe-data/Blue100/198407.jpg'
p201
g3
(g4
(I0
tS'b'
tRp202
(I1
(I2
tg7
I00
S'\x80\r}?s\x9f<<'
tbtp203
a(S'/data/ad6813/pipe-data/Blue100/198410.jpg'
p204
g3
(g4
(I0
tS'b'
tRp205
(I1
(I2
tg7
I00
S'\rgz?[\x1e\xb3<'
tbtp206
a(S'/data/ad6813/pipe-data/Blue100/198411.jpg'
p207
g3
(g4
(I0
tS'b'
tRp208
(I1
(I2
tg7
I00
S'&s|? 7c<'
tbtp209
a(S'/data/ad6813/pipe-data/Blue100/198415.jpg'
p210
g3
(g4
(I0
tS'b'
tRp211
(I1
(I2
tg7
I00
S'\xed%}?\xea\x846<'
tbtp212
a(S'/data/ad6813/pipe-data/Blue100/198442.jpg'
p213
g3
(g4
(I0
tS'b'
tRp214
(I1
(I2
tg7
I00
S'\x0e\xad}?\xae\xbc\x14<'
tbtp215
a(S'/data/ad6813/pipe-data/Blue100/198456.jpg'
p216
g3
(g4
(I0
tS'b'
tRp217
(I1
(I2
tg7
I00
S'\x08^}?\xb4}(<'
tbtp218
a(S'/data/ad6813/pipe-data/Blue100/198470.jpg'
p219
g3
(g4
(I0
tS'b'
tRp220
(I1
(I2
tg7
I00
S'}o|?S d<'
tbtp221
a(S'/data/ad6813/pipe-data/Blue100/198471.jpg'
p222
g3
(g4
(I0
tS'b'
tRp223
(I1
(I2
tg7
I00
S'\xbdFy?^(\xd7<'
tbtp224
a(S'/data/ad6813/pipe-data/Blue100/198474.jpg'
p225
g3
(g4
(I0
tS'b'
tRp226
(I1
(I2
tg7
I00
S'\x96\xa7\x7f?\xfc\xd5\xb0:'
tbtp227
a(S'/data/ad6813/pipe-data/Blue100/198475.jpg'
p228
g3
(g4
(I0
tS'b'
tRp229
(I1
(I2
tg7
I00
S'\xbe\x14\xd2>\xa1\xf5\x16?'
tbtp230
a(S'/data/ad6813/pipe-data/Blue100/198476.jpg'
p231
g3
(g4
(I0
tS'b'
tRp232
(I1
(I2
tg7
I00
S'\xe5\xe0~?R\x8e\x8f;'
tbtp233
a(S'/data/ad6813/pipe-data/Blue100/198479.jpg'
p234
g3
(g4
(I0
tS'b'
tRp235
(I1
(I2
tg7
I00
S'\x13c\x7f?\x0e\xed\x1c;'
tbtp236
a(S'/data/ad6813/pipe-data/Blue100/198481.jpg'
p237
g3
(g4
(I0
tS'b'
tRp238
(I1
(I2
tg7
I00
S'z\x1b~?0C\xf2;'
tbtp239
a(S'/data/ad6813/pipe-data/Blue100/198509.jpg'
p240
g3
(g4
(I0
tS'b'
tRp241
(I1
(I2
tg7
I00
S' Z~?\x10\xf0\xd2;'
tbtp242
a(S'/data/ad6813/pipe-data/Blue100/198518.jpg'
p243
g3
(g4
(I0
tS'b'
tRp244
(I1
(I2
tg7
I00
S'\x9b\xde\x04?\xceB\xf6>'
tbtp245
a(S'/data/ad6813/pipe-data/Blue100/198519.jpg'
p246
g3
(g4
(I0
tS'b'
tRp247
(I1
(I2
tg7
I00
S'\xd1W\x06?]P\xf3>'
tbtp248
a(S'/data/ad6813/pipe-data/Blue100/198528.jpg'
p249
g3
(g4
(I0
tS'b'
tRp250
(I1
(I2
tg7
I00
S'\xaa\x18\xf6>\xaa\xf3\x04?'
tbtp251
a(S'/data/ad6813/pipe-data/Blue100/198529.jpg'
p252
g3
(g4
(I0
tS'b'
tRp253
(I1
(I2
tg7
I00
S'\xeb:\xec>\x8b\xe2\t?'
tbtp254
a(S'/data/ad6813/pipe-data/Blue100/198532.jpg'
p255
g3
(g4
(I0
tS'b'
tRp256
(I1
(I2
tg7
I00
S'38\x7f?\x01\xcdG;'
tbtp257
a(S'/data/ad6813/pipe-data/Blue100/198540.jpg'
p258
g3
(g4
(I0
tS'b'
tRp259
(I1
(I2
tg7
I00
S'\x98M{?\xd5L\x96<'
tbtp260
a(S'/data/ad6813/pipe-data/Blue100/198556.jpg'
p261
g3
(g4
(I0
tS'b'
tRp262
(I1
(I2
tg7
I00
S'\xf8\xd6~?\x07\x84\x94;'
tbtp263
a(S'/data/ad6813/pipe-data/Blue100/198600.jpg'
p264
g3
(g4
(I0
tS'b'
tRp265
(I1
(I2
tg7
I00
S'Ra\x13?^=\xd9>'
tbtp266
a(S'/data/ad6813/pipe-data/Blue100/198601.jpg'
p267
g3
(g4
(I0
tS'b'
tRp268
(I1
(I2
tg7
I00
S'\xfa\x9c\x07?\r\xc6\xf0>'
tbtp269
a(S'/data/ad6813/pipe-data/Blue100/198604.jpg'
p270
g3
(g4
(I0
tS'b'
tRp271
(I1
(I2
tg7
I00
S'\x95\xe4[?\xacm\x10>'
tbtp272
a(S'/data/ad6813/pipe-data/Blue100/198608.jpg'
p273
g3
(g4
(I0
tS'b'
tRp274
(I1
(I2
tg7
I00
S'fp|?v\xe6c<'
tbtp275
a(S'/data/ad6813/pipe-data/Blue100/198610.jpg'
p276
g3
(g4
(I0
tS'b'
tRp277
(I1
(I2
tg7
I00
S'M\xbf~? Y\xa0;'
tbtp278
a(S'/data/ad6813/pipe-data/Blue100/198620.jpg'
p279
g3
(g4
(I0
tS'b'
tRp280
(I1
(I2
tg7
I00
S'h\xf3p?p\xc9p='
tbtp281
a(S'/data/ad6813/pipe-data/Blue100/198622.jpg'
p282
g3
(g4
(I0
tS'b'
tRp283
(I1
(I2
tg7
I00
S'\xb5\xbd~?\xc3%\xa1;'
tbtp284
a(S'/data/ad6813/pipe-data/Blue100/198627.jpg'
p285
g3
(g4
(I0
tS'b'
tRp286
(I1
(I2
tg7
I00
S'p\xac}?\xfc\xe3\x14<'
tbtp287
a(S'/data/ad6813/pipe-data/Blue100/198629.jpg'
p288
g3
(g4
(I0
tS'b'
tRp289
(I1
(I2
tg7
I00
S'\xe0\xf2y?\xdb\xa3\xc1<'
tbtp290
a(S'/data/ad6813/pipe-data/Blue100/198630.jpg'
p291
g3
(g4
(I0
tS'b'
tRp292
(I1
(I2
tg7
I00
S'=\x1ey?]8\xdc<'
tbtp293
a(S'/data/ad6813/pipe-data/Blue100/198637.jpg'
p294
g3
(g4
(I0
tS'b'
tRp295
(I1
(I2
tg7
I00
S'\xe3\x0by?\xaa\x83\xde<'
tbtp296
a(S'/data/ad6813/pipe-data/Blue100/198638.jpg'
p297
g3
(g4
(I0
tS'b'
tRp298
(I1
(I2
tg7
I00
S':\x02}?\x99q?<'
tbtp299
a(S'/data/ad6813/pipe-data/Blue100/198640.jpg'
p300
g3
(g4
(I0
tS'b'
tRp301
(I1
(I2
tg7
I00
S'\x1dc|?\xea8g<'
tbtp302
a(S'/data/ad6813/pipe-data/Blue100/198653.jpg'
p303
g3
(g4
(I0
tS'b'
tRp304
(I1
(I2
tg7
I00
S'\xc6j~?\xaf\x9c\xca;'
tbtp305
a.