(lp1
(S'/data/ad6813/pipe-data/BlueboxTemp/198098.jpg'
p2
cnumpy.core.multiarray
_reconstruct
p3
(cnumpy
ndarray
p4
(I0
tS'b'
tRp5
(I1
(I2
tcnumpy
dtype
p6
(S'f4'
I0
I1
tRp7
(I3
S'<'
NNNI-1
I-1
I0
tbI00
S'\t\t9?\xee\xed\x8d>'
tbtp8
a(S'/data/ad6813/pipe-data/BlueboxTemp/198107.jpg'
p9
g3
(g4
(I0
tS'b'
tRp10
(I1
(I2
tg7
I00
S'\x96SG?\xa6\xb1b>'
tbtp11
a(S'/data/ad6813/pipe-data/BlueboxTemp/198117.jpg'
p12
g3
(g4
(I0
tS'b'
tRp13
(I1
(I2
tg7
I00
S'J\xe3\xd8>Z\x8e\x13?'
tbtp14
a(S'/data/ad6813/pipe-data/BlueboxTemp/198118.jpg'
p15
g3
(g4
(I0
tS'b'
tRp16
(I1
(I2
tg7
I00
S'ArH?\xfd6^>'
tbtp17
a(S'/data/ad6813/pipe-data/BlueboxTemp/198121.jpg'
p18
g3
(g4
(I0
tS'b'
tRp19
(I1
(I2
tg7
I00
S'\x88\x1b\x1a?\xf0\xc8\xcb>'
tbtp20
a(S'/data/ad6813/pipe-data/BlueboxTemp/198122.jpg'
p21
g3
(g4
(I0
tS'b'
tRp22
(I1
(I2
tg7
I00
S'\x18O-?\xcfa\xa5>'
tbtp23
a(S'/data/ad6813/pipe-data/BlueboxTemp/198132.jpg'
p24
g3
(g4
(I0
tS'b'
tRp25
(I1
(I2
tg7
I00
S'\x06\x07l?\xc5\xc7\x9f='
tbtp26
a(S'/data/ad6813/pipe-data/BlueboxTemp/198134.jpg'
p27
g3
(g4
(I0
tS'b'
tRp28
(I1
(I2
tg7
I00
S'\xf6\x0c\xb5>\x86y%?'
tbtp29
a(S'/data/ad6813/pipe-data/BlueboxTemp/198140.jpg'
p30
g3
(g4
(I0
tS'b'
tRp31
(I1
(I2
tg7
I00
S'\xd2\xae&?]\xa2\xb2>'
tbtp32
a(S'/data/ad6813/pipe-data/BlueboxTemp/198143.jpg'
p33
g3
(g4
(I0
tS'b'
tRp34
(I1
(I2
tg7
I00
S'\x94\x98b?f;\xeb='
tbtp35
a(S'/data/ad6813/pipe-data/BlueboxTemp/198164.jpg'
p36
g3
(g4
(I0
tS'b'
tRp37
(I1
(I2
tg7
I00
S'\xfdj4?\x07*\x97>'
tbtp38
a(S'/data/ad6813/pipe-data/BlueboxTemp/198170.jpg'
p39
g3
(g4
(I0
tS'b'
tRp40
(I1
(I2
tg7
I00
S'\xd5F??Ur\x81>'
tbtp41
a(S'/data/ad6813/pipe-data/BlueboxTemp/198174.jpg'
p42
g3
(g4
(I0
tS'b'
tRp43
(I1
(I2
tg7
I00
S'dwI?q"Z>'
tbtp44
a(S'/data/ad6813/pipe-data/BlueboxTemp/198176.jpg'
p45
g3
(g4
(I0
tS'b'
tRp46
(I1
(I2
tg7
I00
S'\xec\x98\x84>\x8b\xb3=?'
tbtp47
a(S'/data/ad6813/pipe-data/BlueboxTemp/198183.jpg'
p48
g3
(g4
(I0
tS'b'
tRp49
(I1
(I2
tg7
I00
S'\xe6\xb7\xf3>\x0e$\x06?'
tbtp50
a(S'/data/ad6813/pipe-data/BlueboxTemp/198190.jpg'
p51
g3
(g4
(I0
tS'b'
tRp52
(I1
(I2
tg7
I00
S'3\xfb_?3\x13\x00>'
tbtp53
a(S'/data/ad6813/pipe-data/BlueboxTemp/198210.jpg'
p54
g3
(g4
(I0
tS'b'
tRp55
(I1
(I2
tg7
I00
S'<\xfbJ?\x0f\x13T>'
tbtp56
a(S'/data/ad6813/pipe-data/BlueboxTemp/198211.jpg'
p57
g3
(g4
(I0
tS'b'
tRp58
(I1
(I2
tg7
I00
S'\x9fzY?\x82\x15\x1a>'
tbtp59
a(S'/data/ad6813/pipe-data/BlueboxTemp/198214.jpg'
p60
g3
(g4
(I0
tS'b'
tRp61
(I1
(I2
tg7
I00
S'\xf7c+?\x118\xa9>'
tbtp62
a(S'/data/ad6813/pipe-data/BlueboxTemp/198215.jpg'
p63
g3
(g4
(I0
tS'b'
tRp64
(I1
(I2
tg7
I00
S"\xf71B?'8w>"
tbtp65
a(S'/data/ad6813/pipe-data/BlueboxTemp/198218.jpg'
p66
g3
(g4
(I0
tS'b'
tRp67
(I1
(I2
tg7
I00
S'?\x06"?\x83\xf3\xbb>'
tbtp68
a(S'/data/ad6813/pipe-data/BlueboxTemp/198219.jpg'
p69
g3
(g4
(I0
tS'b'
tRp70
(I1
(I2
tg7
I00
S':\xa4\x18?\x8c\xb7\xce>'
tbtp71
a(S'/data/ad6813/pipe-data/BlueboxTemp/198222.jpg'
p72
g3
(g4
(I0
tS'b'
tRp73
(I1
(I2
tg7
I00
S'\xf7\x08X?\x1e\xdc\x1f>'
tbtp74
a(S'/data/ad6813/pipe-data/BlueboxTemp/198223.jpg'
p75
g3
(g4
(I0
tS'b'
tRp76
(I1
(I2
tg7
I00
S'\xfeC7?\x05x\x91>'
tbtp77
a(S'/data/ad6813/pipe-data/BlueboxTemp/198226.jpg'
p78
g3
(g4
(I0
tS'b'
tRp79
(I1
(I2
tg7
I00
S'}H\x1c?\to\xc7>'
tbtp80
a(S'/data/ad6813/pipe-data/BlueboxTemp/198228.jpg'
p81
g3
(g4
(I0
tS'b'
tRp82
(I1
(I2
tg7
I00
S'n;\x10?&\x89\xdf>'
tbtp83
a(S'/data/ad6813/pipe-data/BlueboxTemp/198229.jpg'
p84
g3
(g4
(I0
tS'b'
tRp85
(I1
(I2
tg7
I00
S'\x96\x9f5?\xd3\xc0\x94>'
tbtp86
a(S'/data/ad6813/pipe-data/BlueboxTemp/198239.jpg'
p87
g3
(g4
(I0
tS'b'
tRp88
(I1
(I2
tg7
I00
S'[G\xd6>S\xdc\x14?'
tbtp89
a(S'/data/ad6813/pipe-data/BlueboxTemp/198242.jpg'
p90
g3
(g4
(I0
tS'b'
tRp91
(I1
(I2
tg7
I00
S'\xa3\x88!?\xb9\xee\xbc>'
tbtp92
a(S'/data/ad6813/pipe-data/BlueboxTemp/198245.jpg'
p93
g3
(g4
(I0
tS'b'
tRp94
(I1
(I2
tg7
I00
S'\n\xd3+?\xeeY\xa8>'
tbtp95
a(S'/data/ad6813/pipe-data/BlueboxTemp/198249.jpg'
p96
g3
(g4
(I0
tS'b'
tRp97
(I1
(I2
tg7
I00
S'\xee\xa6G?Eda>'
tbtp98
a(S'/data/ad6813/pipe-data/BlueboxTemp/198262.jpg'
p99
g3
(g4
(I0
tS'b'
tRp100
(I1
(I2
tg7
I00
S'S\x16%?[\xd3\xb5>'
tbtp101
a(S'/data/ad6813/pipe-data/BlueboxTemp/198265.jpg'
p102
g3
(g4
(I0
tS'b'
tRp103
(I1
(I2
tg7
I00
S'[\xdd\x1e?JE\xc2>'
tbtp104
a(S'/data/ad6813/pipe-data/BlueboxTemp/198270.jpg'
p105
g3
(g4
(I0
tS'b'
tRp106
(I1
(I2
tg7
I00
S'\xe9\xd1W?a\xb8 >'
tbtp107
a(S'/data/ad6813/pipe-data/BlueboxTemp/198271.jpg'
p108
g3
(g4
(I0
tS'b'
tRp109
(I1
(I2
tg7
I00
S'\x89\x08`?\xbc\xbb\xff='
tbtp110
a(S'/data/ad6813/pipe-data/BlueboxTemp/198280.jpg'
p111
g3
(g4
(I0
tS'b'
tRp112
(I1
(I2
tg7
I00
S'\xfb-J?\x14HW>'
tbtp113
a(S'/data/ad6813/pipe-data/BlueboxTemp/198291.jpg'
p114
g3
(g4
(I0
tS'b'
tRp115
(I1
(I2
tg7
I00
S'\xe9z\xb8>\x8b\xc2#?'
tbtp116
a(S'/data/ad6813/pipe-data/BlueboxTemp/198297.jpg'
p117
g3
(g4
(I0
tS'b'
tRp118
(I1
(I2
tg7
I00
S'\x1b\x07\xef>r|\x08?'
tbtp119
a(S'/data/ad6813/pipe-data/BlueboxTemp/198307.jpg'
p120
g3
(g4
(I0
tS'b'
tRp121
(I1
(I2
tg7
I00
S'g\x8f\x00?1\xe1\xfe>'
tbtp122
a(S'/data/ad6813/pipe-data/BlueboxTemp/198310.jpg'
p123
g3
(g4
(I0
tS'b'
tRp124
(I1
(I2
tg7
I00
S'l^I?N\x86Z>'
tbtp125
a(S'/data/ad6813/pipe-data/BlueboxTemp/198311.jpg'
p126
g3
(g4
(I0
tS'b'
tRp127
(I1
(I2
tg7
I00
S'\xfe\x0fT?\n\xc0/>'
tbtp128
a(S'/data/ad6813/pipe-data/BlueboxTemp/198317.jpg'
p129
g3
(g4
(I0
tS'b'
tRp130
(I1
(I2
tg7
I00
S'\x1f\x9f\x1b?\xc3\xc1\xc8>'
tbtp131
a(S'/data/ad6813/pipe-data/BlueboxTemp/198321.jpg'
p132
g3
(g4
(I0
tS'b'
tRp133
(I1
(I2
tg7
I00
S'`\x05:?B\xf5\x8b>'
tbtp134
a(S'/data/ad6813/pipe-data/BlueboxTemp/198322.jpg'
p135
g3
(g4
(I0
tS'b'
tRp136
(I1
(I2
tg7
I00
S'\xa3\xe0\xd7>\xaf\x0f\x14?'
tbtp137
a(S'/data/ad6813/pipe-data/BlueboxTemp/198328.jpg'
p138
g3
(g4
(I0
tS'b'
tRp139
(I1
(I2
tg7
I00
S'\xd2\xe3.?\\8\xa2>'
tbtp140
a(S'/data/ad6813/pipe-data/BlueboxTemp/198330.jpg'
p141
g3
(g4
(I0
tS'b'
tRp142
(I1
(I2
tg7
I00
S'5z\x10?\x97\x0b\xdf>'
tbtp143
a(S'/data/ad6813/pipe-data/BlueboxTemp/198331.jpg'
p144
g3
(g4
(I0
tS'b'
tRp145
(I1
(I2
tg7
I00
S'\x14\x90-?\xd7\xdf\xa4>'
tbtp146
a(S'/data/ad6813/pipe-data/BlueboxTemp/198339.jpg'
p147
g3
(g4
(I0
tS'b'
tRp148
(I1
(I2
tg7
I00
S'(\x1e0?\xae\xc3\x9f>'
tbtp149
a(S'/data/ad6813/pipe-data/BlueboxTemp/198344.jpg'
p150
g3
(g4
(I0
tS'b'
tRp151
(I1
(I2
tg7
I00
S'\xbc\xec\x0f?\x86&\xe0>'
tbtp152
a(S'/data/ad6813/pipe-data/BlueboxTemp/198355.jpg'
p153
g3
(g4
(I0
tS'b'
tRp154
(I1
(I2
tg7
I00
S'S\xa2[?\xb4v\x11>'
tbtp155
a(S'/data/ad6813/pipe-data/BlueboxTemp/198357.jpg'
p156
g3
(g4
(I0
tS'b'
tRp157
(I1
(I2
tg7
I00
S'\xad\xf2,?\xa5\x1a\xa6>'
tbtp158
a(S'/data/ad6813/pipe-data/BlueboxTemp/198360.jpg'
p159
g3
(g4
(I0
tS'b'
tRp160
(I1
(I2
tg7
I00
S'`\xd8<?=O\x86>'
tbtp161
a(S'/data/ad6813/pipe-data/BlueboxTemp/198363.jpg'
p162
g3
(g4
(I0
tS'b'
tRp163
(I1
(I2
tg7
I00
S'\xac_l?\x9e\x02\x9d='
tbtp164
a(S'/data/ad6813/pipe-data/BlueboxTemp/198364.jpg'
p165
g3
(g4
(I0
tS'b'
tRp166
(I1
(I2
tg7
I00
S'\x9f0a?\x0b{\xf6='
tbtp167
a(S'/data/ad6813/pipe-data/BlueboxTemp/198365.jpg'
p168
g3
(g4
(I0
tS'b'
tRp169
(I1
(I2
tg7
I00
S'Hc\x07?o9\xf1>'
tbtp170
a(S'/data/ad6813/pipe-data/BlueboxTemp/198368.jpg'
p171
g3
(g4
(I0
tS'b'
tRp172
(I1
(I2
tg7
I00
S'w\x04e?H\xdc\xd7='
tbtp173
a(S'/data/ad6813/pipe-data/BlueboxTemp/198373.jpg'
p174
g3
(g4
(I0
tS'b'
tRp175
(I1
(I2
tg7
I00
S')s\x0b?\xac\x19\xe9>'
tbtp176
a(S'/data/ad6813/pipe-data/BlueboxTemp/198377.jpg'
p177
g3
(g4
(I0
tS'b'
tRp178
(I1
(I2
tg7
I00
S'\xcb\x876?j\xf0\x92>'
tbtp179
a(S'/data/ad6813/pipe-data/BlueboxTemp/198379.jpg'
p180
g3
(g4
(I0
tS'b'
tRp181
(I1
(I2
tg7
I00
S'a\xb3K?\x7f2Q>'
tbtp182
a(S'/data/ad6813/pipe-data/BlueboxTemp/198382.jpg'
p183
g3
(g4
(I0
tS'b'
tRp184
(I1
(I2
tg7
I00
S'\x9b\xc8\x7f>\xd9\r@?'
tbtp185
a(S'/data/ad6813/pipe-data/BlueboxTemp/198388.jpg'
p186
g3
(g4
(I0
tS'b'
tRp187
(I1
(I2
tg7
I00
S'\xe3M_?r\xc8\x02>'
tbtp188
a(S'/data/ad6813/pipe-data/BlueboxTemp/198389.jpg'
p189
g3
(g4
(I0
tS'b'
tRp190
(I1
(I2
tg7
I00
S'\x8b\xd1\xe8>:\x97\x0b?'
tbtp191
a(S'/data/ad6813/pipe-data/BlueboxTemp/198395.jpg'
p192
g3
(g4
(I0
tS'b'
tRp193
(I1
(I2
tg7
I00
S'\x01\x1e ?\xfc\xc3\xbf>'
tbtp194
a(S'/data/ad6813/pipe-data/BlueboxTemp/198396.jpg'
p195
g3
(g4
(I0
tS'b'
tRp196
(I1
(I2
tg7
I00
S'\xe9v$?/\x12\xb7>'
tbtp197
a(S'/data/ad6813/pipe-data/BlueboxTemp/198398.jpg'
p198
g3
(g4
(I0
tS'b'
tRp199
(I1
(I2
tg7
I00
S'\xfd\xac5?\x06\xa6\x94>'
tbtp200
a(S'/data/ad6813/pipe-data/BlueboxTemp/198407.jpg'
p201
g3
(g4
(I0
tS'b'
tRp202
(I1
(I2
tg7
I00
S'\xb0\xde\t?\x9fB\xec>'
tbtp203
a(S'/data/ad6813/pipe-data/BlueboxTemp/198410.jpg'
p204
g3
(g4
(I0
tS'b'
tRp205
(I1
(I2
tg7
I00
S'\xa2\xfc\x10?\xbe\x06\xde>'
tbtp206
a(S'/data/ad6813/pipe-data/BlueboxTemp/198411.jpg'
p207
g3
(g4
(I0
tS'b'
tRp208
(I1
(I2
tg7
I00
S'\x08\xe6X?\xdcg\x1c>'
tbtp209
a(S'/data/ad6813/pipe-data/BlueboxTemp/198415.jpg'
p210
g3
(g4
(I0
tS'b'
tRp211
(I1
(I2
tg7
I00
S'\xe3{\x14?8\x08\xd7>'
tbtp212
a(S'/data/ad6813/pipe-data/BlueboxTemp/198442.jpg'
p213
g3
(g4
(I0
tS'b'
tRp214
(I1
(I2
tg7
I00
S'\x8a\x99a?\xb73\xf3='
tbtp215
a(S'/data/ad6813/pipe-data/BlueboxTemp/198456.jpg'
p216
g3
(g4
(I0
tS'b'
tRp217
(I1
(I2
tg7
I00
S'\xd1#\xd7>\x18n\x14?'
tbtp218
a(S'/data/ad6813/pipe-data/BlueboxTemp/198470.jpg'
p219
g3
(g4
(I0
tS'b'
tRp220
(I1
(I2
tg7
I00
S'o)\x1c?#\xad\xc7>'
tbtp221
a(S'/data/ad6813/pipe-data/BlueboxTemp/198471.jpg'
p222
g3
(g4
(I0
tS'b'
tRp223
(I1
(I2
tg7
I00
S'\xd3\xef\x12?X \xda>'
tbtp224
a(S'/data/ad6813/pipe-data/BlueboxTemp/198474.jpg'
p225
g3
(g4
(I0
tS'b'
tRp226
(I1
(I2
tg7
I00
S'\xdc\xb7\xf8>\x12\xa4\x03?'
tbtp227
a(S'/data/ad6813/pipe-data/BlueboxTemp/198475.jpg'
p228
g3
(g4
(I0
tS'b'
tRp229
(I1
(I2
tg7
I00
S'i:\r?+\x8b\xe5>'
tbtp230
a(S'/data/ad6813/pipe-data/BlueboxTemp/198476.jpg'
p231
g3
(g4
(I0
tS'b'
tRp232
(I1
(I2
tg7
I00
S'\xa6+H?hQ_>'
tbtp233
a(S'/data/ad6813/pipe-data/BlueboxTemp/198479.jpg'
p234
g3
(g4
(I0
tS'b'
tRp235
(I1
(I2
tg7
I00
S'\xf5p\xe7>\x86G\x0c?'
tbtp236
a(S'/data/ad6813/pipe-data/BlueboxTemp/198481.jpg'
p237
g3
(g4
(I0
tS'b'
tRp238
(I1
(I2
tg7
I00
S'\x14</?\xd7\x87\xa1>'
tbtp239
a(S'/data/ad6813/pipe-data/BlueboxTemp/198509.jpg'
p240
g3
(g4
(I0
tS'b'
tRp241
(I1
(I2
tg7
I00
S"P|'?_\x07\xb1>"
tbtp242
a(S'/data/ad6813/pipe-data/BlueboxTemp/198518.jpg'
p243
g3
(g4
(I0
tS'b'
tRp244
(I1
(I2
tg7
I00
S'?\xf2-?\x82\x1b\xa4>'
tbtp245
a(S'/data/ad6813/pipe-data/BlueboxTemp/198519.jpg'
p246
g3
(g4
(I0
tS'b'
tRp247
(I1
(I2
tg7
I00
S'!\x19`?\xf16\xff='
tbtp248
a(S'/data/ad6813/pipe-data/BlueboxTemp/198528.jpg'
p249
g3
(g4
(I0
tS'b'
tRp250
(I1
(I2
tg7
I00
S'\xaf\r$?\xa0\xe4\xb7>'
tbtp251
a(S'/data/ad6813/pipe-data/BlueboxTemp/198529.jpg'
p252
g3
(g4
(I0
tS'b'
tRp253
(I1
(I2
tg7
I00
S'j\xeaH?[V\\>'
tbtp254
a(S'/data/ad6813/pipe-data/BlueboxTemp/198532.jpg'
p255
g3
(g4
(I0
tS'b'
tRp256
(I1
(I2
tg7
I00
S'\x1d\xa2I?\x8cwY>'
tbtp257
a(S'/data/ad6813/pipe-data/BlueboxTemp/198540.jpg'
p258
g3
(g4
(I0
tS'b'
tRp259
(I1
(I2
tg7
I00
S'\x19\x02\x16?\xce\xfb\xd3>'
tbtp260
a(S'/data/ad6813/pipe-data/BlueboxTemp/198556.jpg'
p261
g3
(g4
(I0
tS'b'
tRp262
(I1
(I2
tg7
I00
S'\xf0q\x13? \x1c\xd9>'
tbtp263
a(S'/data/ad6813/pipe-data/BlueboxTemp/198600.jpg'
p264
g3
(g4
(I0
tS'b'
tRp265
(I1
(I2
tg7
I00
S'\x9c\x92\r?\xc8\xda\xe4>'
tbtp266
a(S'/data/ad6813/pipe-data/BlueboxTemp/198601.jpg'
p267
g3
(g4
(I0
tS'b'
tRp268
(I1
(I2
tg7
I00
S'\xb5\xfa\xe1>\xa5\x02\x0f?'
tbtp269
a(S'/data/ad6813/pipe-data/BlueboxTemp/198604.jpg'
p270
g3
(g4
(I0
tS'b'
tRp271
(I1
(I2
tg7
I00
S'w\xa7\x17?\x0f\xb1\xd0>'
tbtp272
a(S'/data/ad6813/pipe-data/BlueboxTemp/198608.jpg'
p273
g3
(g4
(I0
tS'b'
tRp274
(I1
(I2
tg7
I00
S'\xb7\xa2Y?!u\x19>'
tbtp275
a(S'/data/ad6813/pipe-data/BlueboxTemp/198610.jpg'
p276
g3
(g4
(I0
tS'b'
tRp277
(I1
(I2
tg7
I00
S'\x12\xa3D?\xb9sm>'
tbtp278
a(S'/data/ad6813/pipe-data/BlueboxTemp/198620.jpg'
p279
g3
(g4
(I0
tS'b'
tRp280
(I1
(I2
tg7
I00
S"'\x99\x13?\xb2\xcd\xd8>"
tbtp281
a(S'/data/ad6813/pipe-data/BlueboxTemp/198622.jpg'
p282
g3
(g4
(I0
tS'b'
tRp283
(I1
(I2
tg7
I00
S'\x16r_?\xaa7\x02>'
tbtp284
a(S'/data/ad6813/pipe-data/BlueboxTemp/198627.jpg'
p285
g3
(g4
(I0
tS'b'
tRp286
(I1
(I2
tg7
I00
S'\x88!g?\xbd\xf3\xc6='
tbtp287
a(S'/data/ad6813/pipe-data/BlueboxTemp/198629.jpg'
p288
g3
(g4
(I0
tS'b'
tRp289
(I1
(I2
tg7
I00
S'@/\xc8>`\xe8\x1b?'
tbtp290
a(S'/data/ad6813/pipe-data/BlueboxTemp/198630.jpg'
p291
g3
(g4
(I0
tS'b'
tRp292
(I1
(I2
tg7
I00
S'\x83\x9a\x03?\xfd\xca\xf8>'
tbtp293
a(S'/data/ad6813/pipe-data/BlueboxTemp/198637.jpg'
p294
g3
(g4
(I0
tS'b'
tRp295
(I1
(I2
tg7
I00
S'K""?i\xbb\xbb>'
tbtp296
a(S'/data/ad6813/pipe-data/BlueboxTemp/198638.jpg'
p297
g3
(g4
(I0
tS'b'
tRp298
(I1
(I2
tg7
I00
S'`\xef\x0b??!\xe8>'
tbtp299
a(S'/data/ad6813/pipe-data/BlueboxTemp/198640.jpg'
p300
g3
(g4
(I0
tS'b'
tRp301
(I1
(I2
tg7
I00
S'\x94\x92\x80>\xb6\xb6??'
tbtp302
a(S'/data/ad6813/pipe-data/BlueboxTemp/198653.jpg'
p303
g3
(g4
(I0
tS'b'
tRp304
(I1
(I2
tg7
I00
S'\xbc0\x12?\x87\x9e\xdb>'
tbtp305
a(S'/data/ad6813/pipe-data/BlueboxTemp/198663.jpg'
p306
g3
(g4
(I0
tS'b'
tRp307
(I1
(I2
tg7
I00
S"\xa6^'?\xb3B\xb1>"
tbtp308
a(S'/data/ad6813/pipe-data/BlueboxTemp/198664.jpg'
p309
g3
(g4
(I0
tS'b'
tRp310
(I1
(I2
tg7
I00
S'X\x86G?\xa2\xe6a>'
tbtp311
a(S'/data/ad6813/pipe-data/BlueboxTemp/198668.jpg'
p312
g3
(g4
(I0
tS'b'
tRp313
(I1
(I2
tg7
I00
S'\xeb$J?UlW>'
tbtp314
a(S'/data/ad6813/pipe-data/BlueboxTemp/198670.jpg'
p315
g3
(g4
(I0
tS'b'
tRp316
(I1
(I2
tg7
I00
S'\x1f\x95\xdc>p\xb5\x11?'
tbtp317
a(S'/data/ad6813/pipe-data/BlueboxTemp/198679.jpg'
p318
g3
(g4
(I0
tS'b'
tRp319
(I1
(I2
tg7
I00
S'f\xfe\x17?4\x03\xd0>'
tbtp320
a(S'/data/ad6813/pipe-data/BlueboxTemp/198684.jpg'
p321
g3
(g4
(I0
tS'b'
tRp322
(I1
(I2
tg7
I00
S'\xbb\xd2W?\x11\xb5 >'
tbtp323
a(S'/data/ad6813/pipe-data/BlueboxTemp/198687.jpg'
p324
g3
(g4
(I0
tS'b'
tRp325
(I1
(I2
tg7
I00
S'\xaee\x9f>)M0?'
tbtp326
a(S'/data/ad6813/pipe-data/BlueboxTemp/198688.jpg'
p327
g3
(g4
(I0
tS'b'
tRp328
(I1
(I2
tg7
I00
S'\xb0\xf6S?A%0>'
tbtp329
a(S'/data/ad6813/pipe-data/BlueboxTemp/198705.jpg'
p330
g3
(g4
(I0
tS'b'
tRp331
(I1
(I2
tg7
I00
S"0\x0fV?=\xc3'>"
tbtp332
a(S'/data/ad6813/pipe-data/BlueboxTemp/198719.jpg'
p333
g3
(g4
(I0
tS'b'
tRp334
(I1
(I2
tg7
I00
S'\xad\xef)?\xa6 \xac>'
tbtp335
a(S'/data/ad6813/pipe-data/BlueboxTemp/198721.jpg'
p336
g3
(g4
(I0
tS'b'
tRp337
(I1
(I2
tg7
I00
S'\x1d\xc0$?\xc6\x7f\xb6>'
tbtp338
a(S'/data/ad6813/pipe-data/BlueboxTemp/198741.jpg'
p339
g3
(g4
(I0
tS'b'
tRp340
(I1
(I2
tg7
I00
S'P\x1cJ?\xbe\x8eW>'
tbtp341
a(S'/data/ad6813/pipe-data/BlueboxTemp/198744.jpg'
p342
g3
(g4
(I0
tS'b'
tRp343
(I1
(I2
tg7
I00
S'\xf03>?"\x98\x83>'
tbtp344
a(S'/data/ad6813/pipe-data/BlueboxTemp/198745.jpg'
p345
g3
(g4
(I0
tS'b'
tRp346
(I1
(I2
tg7
I00
S'_$\x1b?C\xb7\xc9>'
tbtp347
a(S'/data/ad6813/pipe-data/BlueboxTemp/198750.jpg'
p348
g3
(g4
(I0
tS'b'
tRp349
(I1
(I2
tg7
I00
S'\xd3k_?\xb4P\x02>'
tbtp350
a(S'/data/ad6813/pipe-data/BlueboxTemp/198756.jpg'
p351
g3
(g4
(I0
tS'b'
tRp352
(I1
(I2
tg7
I00
S'\t\xfa,?\xee\x0b\xa6>'
tbtp353
a(S'/data/ad6813/pipe-data/BlueboxTemp/198757.jpg'
p354
g3
(g4
(I0
tS'b'
tRp355
(I1
(I2
tg7
I00
S'~\x1e\x07?\x04\xc3\xf1>'
tbtp356
a(S'/data/ad6813/pipe-data/BlueboxTemp/198761.jpg'
p357
g3
(g4
(I0
tS'b'
tRp358
(I1
(I2
tg7
I00
S'\xfb\xf3.?\n\x18\xa2>'
tbtp359
a(S'/data/ad6813/pipe-data/BlueboxTemp/198763.jpg'
p360
g3
(g4
(I0
tS'b'
tRp361
(I1
(I2
tg7
I00
S'pd\xf3>\xc8M\x06?'
tbtp362
a(S'/data/ad6813/pipe-data/BlueboxTemp/198787.jpg'
p363
g3
(g4
(I0
tS'b'
tRp364
(I1
(I2
tg7
I00
S'\x10\xe6Y?\xbfg\x18>'
tbtp365
a(S'/data/ad6813/pipe-data/BlueboxTemp/198789.jpg'
p366
g3
(g4
(I0
tS'b'
tRp367
(I1
(I2
tg7
I00
S'\x9aR]?\x97\xb5\n>'
tbtp368
a(S'/data/ad6813/pipe-data/BlueboxTemp/198795.jpg'
p369
g3
(g4
(I0
tS'b'
tRp370
(I1
(I2
tg7
I00
S'\x1b\x15>?\xc9\xd5\x83>'
tbtp371
a(S'/data/ad6813/pipe-data/BlueboxTemp/198798.jpg'
p372
g3
(g4
(I0
tS'b'
tRp373
(I1
(I2
tg7
I00
S'~\x97T?\x07\xa2->'
tbtp374
a(S'/data/ad6813/pipe-data/BlueboxTemp/198801.jpg'
p375
g3
(g4
(I0
tS'b'
tRp376
(I1
(I2
tg7
I00
S'\x8d\xc21?\xe4z\x9c>'
tbtp377
a(S'/data/ad6813/pipe-data/BlueboxTemp/198806.jpg'
p378
g3
(g4
(I0
tS'b'
tRp379
(I1
(I2
tg7
I00
S'I\x03\\?\xd9\xf2\x0f>'
tbtp380
a(S'/data/ad6813/pipe-data/BlueboxTemp/198819.jpg'
p381
g3
(g4
(I0
tS'b'
tRp382
(I1
(I2
tg7
I00
S'\x0b\x80_?\xd8\xff\x01>'
tbtp383
a(S'/data/ad6813/pipe-data/BlueboxTemp/198822.jpg'
p384
g3
(g4
(I0
tS'b'
tRp385
(I1
(I2
tg7
I00
S'\rt;?\xe6\x17\x89>'
tbtp386
a(S'/data/ad6813/pipe-data/BlueboxTemp/198824.jpg'
p387
g3
(g4
(I0
tS'b'
tRp388
(I1
(I2
tg7
I00
S'Q|7?^\x07\x91>'
tbtp389
a(S'/data/ad6813/pipe-data/BlueboxTemp/198826.jpg'
p390
g3
(g4
(I0
tS'b'
tRp391
(I1
(I2
tg7
I00
S'\xac\x116?\xa9\xdc\x93>'
tbtp392
a(S'/data/ad6813/pipe-data/BlueboxTemp/198838.jpg'
p393
g3
(g4
(I0
tS'b'
tRp394
(I1
(I2
tg7
I00
S'\xa2tp?\xd8\xb5x='
tbtp395
a(S'/data/ad6813/pipe-data/BlueboxTemp/198847.jpg'
p396
g3
(g4
(I0
tS'b'
tRp397
(I1
(I2
tg7
I00
S'h\xd4p?\x87\xb9r='
tbtp398
a(S'/data/ad6813/pipe-data/BlueboxTemp/198855.jpg'
p399
g3
(g4
(I0
tS'b'
tRp400
(I1
(I2
tg7
I00
S'\x11\x07"?\xdf\xf1\xbb>'
tbtp401
a(S'/data/ad6813/pipe-data/BlueboxTemp/198857.jpg'
p402
g3
(g4
(I0
tS'b'
tRp403
(I1
(I2
tg7
I00
S'\xbe<\x0b?\x84\x86\xe9>'
tbtp404
a(S'/data/ad6813/pipe-data/BlueboxTemp/198862.jpg'
p405
g3
(g4
(I0
tS'b'
tRp406
(I1
(I2
tg7
I00
S'\xf6I\xeb>\x06[\n?'
tbtp407
a(S'/data/ad6813/pipe-data/BlueboxTemp/198866.jpg'
p408
g3
(g4
(I0
tS'b'
tRp409
(I1
(I2
tg7
I00
S'\xcb8(?i\x8e\xaf>'
tbtp410
a(S'/data/ad6813/pipe-data/BlueboxTemp/198870.jpg'
p411
g3
(g4
(I0
tS'b'
tRp412
(I1
(I2
tg7
I00
S'@\xf8\x0b?\x80\x0f\xe8>'
tbtp413
a(S'/data/ad6813/pipe-data/BlueboxTemp/198872.jpg'
p414
g3
(g4
(I0
tS'b'
tRp415
(I1
(I2
tg7
I00
S"~\x11V?\x08\xba'>"
tbtp416
a(S'/data/ad6813/pipe-data/BlueboxTemp/198874.jpg'
p417
g3
(g4
(I0
tS'b'
tRp418
(I1
(I2
tg7
I00
S'\x9d\xcd ?\xc6d\xbe>'
tbtp419
a(S'/data/ad6813/pipe-data/BlueboxTemp/198875.jpg'
p420
g3
(g4
(I0
tS'b'
tRp421
(I1
(I2
tg7
I00
S'\xe4bw?\xcf\xd1\t='
tbtp422
a(S'/data/ad6813/pipe-data/BlueboxTemp/198876.jpg'
p423
g3
(g4
(I0
tS'b'
tRp424
(I1
(I2
tg7
I00
S'\xf2\t\xe9>\x07{\x0b?'
tbtp425
a(S'/data/ad6813/pipe-data/BlueboxTemp/198885.jpg'
p426
g3
(g4
(I0
tS'b'
tRp427
(I1
(I2
tg7
I00
S"\x8f\x87'?\xe2\xf0\xb0>"
tbtp428
a(S'/data/ad6813/pipe-data/BlueboxTemp/198888.jpg'
p429
g3
(g4
(I0
tS'b'
tRp430
(I1
(I2
tg7
I00
S'%\x00\x94>\xef\xff5?'
tbtp431
a(S'/data/ad6813/pipe-data/BlueboxTemp/198899.jpg'
p432
g3
(g4
(I0
tS'b'
tRp433
(I1
(I2
tg7
I00
S'O\x9d.?a\xc5\xa2>'
tbtp434
a(S'/data/ad6813/pipe-data/BlueboxTemp/198910.jpg'
p435
g3
(g4
(I0
tS'b'
tRp436
(I1
(I2
tg7
I00
S'a\xfa`?\xf6,\xf8='
tbtp437
a(S'/data/ad6813/pipe-data/BlueboxTemp/198916.jpg'
p438
g3
(g4
(I0
tS'b'
tRp439
(I1
(I2
tg7
I00
S'\x84\x86\x1f?\xf7\xf2\xc0>'
tbtp440
a(S'/data/ad6813/pipe-data/BlueboxTemp/198918.jpg'
p441
g3
(g4
(I0
tS'b'
tRp442
(I1
(I2
tg7
I00
S'kjC?SVr>'
tbtp443
a(S'/data/ad6813/pipe-data/BlueboxTemp/198920.jpg'
p444
g3
(g4
(I0
tS'b'
tRp445
(I1
(I2
tg7
I00
S'\xe27\xd3>\x0fd\x16?'
tbtp446
a(S'/data/ad6813/pipe-data/BlueboxTemp/198921.jpg'
p447
g3
(g4
(I0
tS'b'
tRp448
(I1
(I2
tg7
I00
S')&\x9e>\xeb\xec0?'
tbtp449
a(S'/data/ad6813/pipe-data/BlueboxTemp/198928.jpg'
p450
g3
(g4
(I0
tS'b'
tRp451
(I1
(I2
tg7
I00
S'f\x12\x06?2\xdb\xf3>'
tbtp452
a(S'/data/ad6813/pipe-data/BlueboxTemp/198934.jpg'
p453
g3
(g4
(I0
tS'b'
tRp454
(I1
(I2
tg7
I00
S"'x\xe2>\xed\xc3\x0e?"
tbtp455
a(S'/data/ad6813/pipe-data/BlueboxTemp/198941.jpg'
p456
g3
(g4
(I0
tS'b'
tRp457
(I1
(I2
tg7
I00
S'R\xbaW?\xb9\x16!>'
tbtp458
a(S'/data/ad6813/pipe-data/BlueboxTemp/198949.jpg'
p459
g3
(g4
(I0
tS'b'
tRp460
(I1
(I2
tg7
I00
S'\xdc\xdf"?J@\xba>'
tbtp461
a(S'/data/ad6813/pipe-data/BlueboxTemp/198964.jpg'
p462
g3
(g4
(I0
tS'b'
tRp463
(I1
(I2
tg7
I00
S't<C?1\x0es>'
tbtp464
a(S'/data/ad6813/pipe-data/BlueboxTemp/198969.jpg'
p465
g3
(g4
(I0
tS'b'
tRp466
(I1
(I2
tg7
I00
S";l\x12?\x88'\xdb>"
tbtp467
a(S'/data/ad6813/pipe-data/BlueboxTemp/198978.jpg'
p468
g3
(g4
(I0
tS'b'
tRp469
(I1
(I2
tg7
I00
S'\x1f\xbb\xfa>p\xa2\x02?'
tbtp470
a(S'/data/ad6813/pipe-data/BlueboxTemp/198986.jpg'
p471
g3
(g4
(I0
tS'b'
tRp472
(I1
(I2
tg7
I00
S'\\t\xc2>\xd3\xc5\x1e?'
tbtp473
a(S'/data/ad6813/pipe-data/BlueboxTemp/198987.jpg'
p474
g3
(g4
(I0
tS'b'
tRp475
(I1
(I2
tg7
I00
S' \x07\xa7>p|,?'
tbtp476
a(S'/data/ad6813/pipe-data/BlueboxTemp/198999.jpg'
p477
g3
(g4
(I0
tS'b'
tRp478
(I1
(I2
tg7
I00
S'\x0eNr?-\x1f[='
tbtp479
a(S'/data/ad6813/pipe-data/BlueboxTemp/199007.jpg'
p480
g3
(g4
(I0
tS'b'
tRp481
(I1
(I2
tg7
I00
S'$\x18\xef>\xeds\x08?'
tbtp482
a(S'/data/ad6813/pipe-data/BlueboxTemp/199020.jpg'
p483
g3
(g4
(I0
tS'b'
tRp484
(I1
(I2
tg7
I00
S',u5?\xaa\x15\x95>'
tbtp485
a(S'/data/ad6813/pipe-data/BlueboxTemp/199029.jpg'
p486
g3
(g4
(I0
tS'b'
tRp487
(I1
(I2
tg7
I00
S'e\x07\x1c?4\xf1\xc7>'
tbtp488
a(S'/data/ad6813/pipe-data/BlueboxTemp/199030.jpg'
p489
g3
(g4
(I0
tS'b'
tRp490
(I1
(I2
tg7
I00
S'W\x87\xbb>U<"?'
tbtp491
a(S'/data/ad6813/pipe-data/BlueboxTemp/199036.jpg'
p492
g3
(g4
(I0
tS'b'
tRp493
(I1
(I2
tg7
I00
S'a\xb4\xfb>\xd0%\x02?'
tbtp494
a(S'/data/ad6813/pipe-data/BlueboxTemp/199040.jpg'
p495
g3
(g4
(I0
tS'b'
tRp496
(I1
(I2
tg7
I00
S'X\xaa.?O\xab\xa2>'
tbtp497
a(S'/data/ad6813/pipe-data/BlueboxTemp/199042.jpg'
p498
g3
(g4
(I0
tS'b'
tRp499
(I1
(I2
tg7
I00
S'n?\xe9>I`\x0b?'
tbtp500
a(S'/data/ad6813/pipe-data/BlueboxTemp/199046.jpg'
p501
g3
(g4
(I0
tS'b'
tRp502
(I1
(I2
tg7
I00
S'\xdb\xc8 ?Jn\xbe>'
tbtp503
a(S'/data/ad6813/pipe-data/BlueboxTemp/199047.jpg'
p504
g3
(g4
(I0
tS'b'
tRp505
(I1
(I2
tg7
I00
S"m\r#?'\xe5\xb9>"
tbtp506
a(S'/data/ad6813/pipe-data/BlueboxTemp/199053.jpg'
p507
g3
(g4
(I0
tS'b'
tRp508
(I1
(I2
tg7
I00
S'\x00*\x07?\x01\xac\xf1>'
tbtp509
a(S'/data/ad6813/pipe-data/BlueboxTemp/199061.jpg'
p510
g3
(g4
(I0
tS'b'
tRp511
(I1
(I2
tg7
I00
S'{Rh?,l\xbd='
tbtp512
a(S'/data/ad6813/pipe-data/BlueboxTemp/199062.jpg'
p513
g3
(g4
(I0
tS'b'
tRp514
(I1
(I2
tg7
I00
S'a\x0c\x01?>\xe7\xfd>'
tbtp515
a(S'/data/ad6813/pipe-data/BlueboxTemp/199068.jpg'
p516
g3
(g4
(I0
tS'b'
tRp517
(I1
(I2
tg7
I00
S'\xdd\x01j?\x14\xf1\xaf='
tbtp518
a(S'/data/ad6813/pipe-data/BlueboxTemp/199069.jpg'
p519
g3
(g4
(I0
tS'b'
tRp520
(I1
(I2
tg7
I00
S'2\x15\x15?\x9e\xd5\xd5>'
tbtp521
a(S'/data/ad6813/pipe-data/BlueboxTemp/199070.jpg'
p522
g3
(g4
(I0
tS'b'
tRp523
(I1
(I2
tg7
I00
S'\x0e\x95e?\x8cW\xd3='
tbtp524
a(S'/data/ad6813/pipe-data/BlueboxTemp/199084.jpg'
p525
g3
(g4
(I0
tS'b'
tRp526
(I1
(I2
tg7
I00
S'\x01F/?\xffs\xa1>'
tbtp527
a(S'/data/ad6813/pipe-data/BlueboxTemp/199097.jpg'
p528
g3
(g4
(I0
tS'b'
tRp529
(I1
(I2
tg7
I00
S'\xce\xa5\xf6>\x1a\xad\x04?'
tbtp530
a(S'/data/ad6813/pipe-data/BlueboxTemp/199101.jpg'
p531
g3
(g4
(I0
tS'b'
tRp532
(I1
(I2
tg7
I00
S'\xa3\x9f\xda>.\xb0\x12?'
tbtp533
a(S'/data/ad6813/pipe-data/BlueboxTemp/199104.jpg'
p534
g3
(g4
(I0
tS'b'
tRp535
(I1
(I2
tg7
I00
S'R\x8a7?^\xeb\x90>'
tbtp536
a(S'/data/ad6813/pipe-data/BlueboxTemp/199105.jpg'
p537
g3
(g4
(I0
tS'b'
tRp538
(I1
(I2
tg7
I00
S'\x93\xc0\x19?\xd9~\xcc>'
tbtp539
a(S'/data/ad6813/pipe-data/BlueboxTemp/199108.jpg'
p540
g3
(g4
(I0
tS'b'
tRp541
(I1
(I2
tg7
I00
S'\xd9DX?\x9f\xec\x1e>'
tbtp542
a(S'/data/ad6813/pipe-data/BlueboxTemp/199111.jpg'
p543
g3
(g4
(I0
tS'b'
tRp544
(I1
(I2
tg7
I00
S'\xd0\xc25?az\x94>'
tbtp545
a(S'/data/ad6813/pipe-data/BlueboxTemp/199115.jpg'
p546
g3
(g4
(I0
tS'b'
tRp547
(I1
(I2
tg7
I00
S'\xdc\xd9"?GL\xba>'
tbtp548
a(S'/data/ad6813/pipe-data/BlueboxTemp/199116.jpg'
p549
g3
(g4
(I0
tS'b'
tRp550
(I1
(I2
tg7
I00
S'\n\x96\x9b>\xfb42?'
tbtp551
a(S'/data/ad6813/pipe-data/BlueboxTemp/199118.jpg'
p552
g3
(g4
(I0
tS'b'
tRp553
(I1
(I2
tg7
I00
S'T3\r?V\x99\xe5>'
tbtp554
a(S'/data/ad6813/pipe-data/BlueboxTemp/199120.jpg'
p555
g3
(g4
(I0
tS'b'
tRp556
(I1
(I2
tg7
I00
S'\xfd)\t?\x08\xac\xed>'
tbtp557
a(S'/data/ad6813/pipe-data/BlueboxTemp/199122.jpg'
p558
g3
(g4
(I0
tS'b'
tRp559
(I1
(I2
tg7
I00
S'\xa8\xde\x1d?\xb2B\xc4>'
tbtp560
a(S'/data/ad6813/pipe-data/BlueboxTemp/199126.jpg'
p561
g3
(g4
(I0
tS'b'
tRp562
(I1
(I2
tg7
I00
S'\xc69+?v\x8c\xa9>'
tbtp563
a(S'/data/ad6813/pipe-data/BlueboxTemp/199127.jpg'
p564
g3
(g4
(I0
tS'b'
tRp565
(I1
(I2
tg7
I00
S'\xa3\t\x1c?\xba\xec\xc7>'
tbtp566
a(S'/data/ad6813/pipe-data/BlueboxTemp/199130.jpg'
p567
g3
(g4
(I0
tS'b'
tRp568
(I1
(I2
tg7
I00
S'\xc5\xd8\xed>\x9d\x13\t?'
tbtp569
a(S'/data/ad6813/pipe-data/BlueboxTemp/199131.jpg'
p570
g3
(g4
(I0
tS'b'
tRp571
(I1
(I2
tg7
I00
S'\xd2\x06\x92>\x98\xfc6?'
tbtp572
a(S'/data/ad6813/pipe-data/BlueboxTemp/199136.jpg'
p573
g3
(g4
(I0
tS'b'
tRp574
(I1
(I2
tg7
I00
S'\rT\x11?\xe6W\xdd>'
tbtp575
a(S'/data/ad6813/pipe-data/BlueboxTemp/199138.jpg'
p576
g3
(g4
(I0
tS'b'
tRp577
(I1
(I2
tg7
I00
S'\x9a\xc6\xc8>\xb3\x9c\x1b?'
tbtp578
a(S'/data/ad6813/pipe-data/BlueboxTemp/199139.jpg'
p579
g3
(g4
(I0
tS'b'
tRp580
(I1
(I2
tg7
I00
S'\x19\x05\xe4>s\xfd\r?'
tbtp581
a(S'/data/ad6813/pipe-data/BlueboxTemp/199145.jpg'
p582
g3
(g4
(I0
tS'b'
tRp583
(I1
(I2
tg7
I00
S'+\xc9\x1f?\xa8m\xc0>'
tbtp584
a(S'/data/ad6813/pipe-data/BlueboxTemp/199146.jpg'
p585
g3
(g4
(I0
tS'b'
tRp586
(I1
(I2
tg7
I00
S'\x0e\xfd\x13?\xe1\x05\xd8>'
tbtp587
a(S'/data/ad6813/pipe-data/BlueboxTemp/199148.jpg'
p588
g3
(g4
(I0
tS'b'
tRp589
(I1
(I2
tg7
I00
S'\xb7\\&?\x94F\xb3>'
tbtp590
a(S'/data/ad6813/pipe-data/BlueboxTemp/199167.jpg'
p591
g3
(g4
(I0
tS'b'
tRp592
(I1
(I2
tg7
I00
S'\xd6\x0f>?T\xe0\x83>'
tbtp593
a(S'/data/ad6813/pipe-data/BlueboxTemp/199176.jpg'
p594
g3
(g4
(I0
tS'b'
tRp595
(I1
(I2
tg7
I00
S'3\t\xaf>g{(?'
tbtp596
a(S'/data/ad6813/pipe-data/BlueboxTemp/199180.jpg'
p597
g3
(g4
(I0
tS'b'
tRp598
(I1
(I2
tg7
I00
S'\xee\xe5\xa2>\t\x8d.?'
tbtp599
a(S'/data/ad6813/pipe-data/BlueboxTemp/199181.jpg'
p600
g3
(g4
(I0
tS'b'
tRp601
(I1
(I2
tg7
I00
S'\xbf\x90\x93>\xa176?'
tbtp602
a(S'/data/ad6813/pipe-data/BlueboxTemp/199194.jpg'
p603
g3
(g4
(I0
tS'b'
tRp604
(I1
(I2
tg7
I00
S'B\x80\xff>\xe0?\x00?'
tbtp605
a(S'/data/ad6813/pipe-data/BlueboxTemp/199195.jpg'
p606
g3
(g4
(I0
tS'b'
tRp607
(I1
(I2
tg7
I00
S'<Z-?\x88K\xa5>'
tbtp608
a(S'/data/ad6813/pipe-data/BlueboxTemp/199204.jpg'
p609
g3
(g4
(I0
tS'b'
tRp610
(I1
(I2
tg7
I00
S'?%\x11?\x80\xb5\xdd>'
tbtp611
a(S'/data/ad6813/pipe-data/BlueboxTemp/199205.jpg'
p612
g3
(g4
(I0
tS'b'
tRp613
(I1
(I2
tg7
I00
S'.\x97\x04?\xa4\xd1\xf6>'
tbtp614
a(S'/data/ad6813/pipe-data/BlueboxTemp/199207.jpg'
p615
g3
(g4
(I0
tS'b'
tRp616
(I1
(I2
tg7
I00
S'\xcd\xda\x03?eJ\xf8>'
tbtp617
a(S'/data/ad6813/pipe-data/BlueboxTemp/199211.jpg'
p618
g3
(g4
(I0
tS'b'
tRp619
(I1
(I2
tg7
I00
S'\xf1\xf2\xa9>\x88\x06+?'
tbtp620
a(S'/data/ad6813/pipe-data/BlueboxTemp/199221.jpg'
p621
g3
(g4
(I0
tS'b'
tRp622
(I1
(I2
tg7
I00
S'\x93\xfe\x0c?\xda\x02\xe6>'
tbtp623
a(S'/data/ad6813/pipe-data/BlueboxTemp/199222.jpg'
p624
g3
(g4
(I0
tS'b'
tRp625
(I1
(I2
tg7
I00
S'\xb0t\xd0>\xa8\xc5\x17?'
tbtp626
a(S'/data/ad6813/pipe-data/BlueboxTemp/199228.jpg'
p627
g3
(g4
(I0
tS'b'
tRp628
(I1
(I2
tg7
I00
S'\x89Z\x19?\xedJ\xcd>'
tbtp629
a(S'/data/ad6813/pipe-data/BlueboxTemp/199229.jpg'
p630
g3
(g4
(I0
tS'b'
tRp631
(I1
(I2
tg7
I00
S"\x04\xa4'?\xf8\xb7\xb0>"
tbtp632
a(S'/data/ad6813/pipe-data/BlueboxTemp/199233.jpg'
p633
g3
(g4
(I0
tS'b'
tRp634
(I1
(I2
tg7
I00
S'l\x05W?M\xea#>'
tbtp635
a(S'/data/ad6813/pipe-data/BlueboxTemp/199235.jpg'
p636
g3
(g4
(I0
tS'b'
tRp637
(I1
(I2
tg7
I00
S'\xcd\n"?d\xea\xbb>'
tbtp638
a(S'/data/ad6813/pipe-data/BlueboxTemp/199242.jpg'
p639
g3
(g4
(I0
tS'b'
tRp640
(I1
(I2
tg7
I00
S'\x08P;?\xee_\x89>'
tbtp641
a(S'/data/ad6813/pipe-data/BlueboxTemp/199243.jpg'
p642
g3
(g4
(I0
tS'b'
tRp643
(I1
(I2
tg7
I00
S'k\xff\x04?,\x01\xf6>'
tbtp644
a(S'/data/ad6813/pipe-data/BlueboxTemp/199246.jpg'
p645
g3
(g4
(I0
tS'b'
tRp646
(I1
(I2
tg7
I00
S'!\xdb\x11?\xbdI\xdc>'
tbtp647
a(S'/data/ad6813/pipe-data/BlueboxTemp/199248.jpg'
p648
g3
(g4
(I0
tS'b'
tRp649
(I1
(I2
tg7
I00
S's]J?1\x8aV>'
tbtp650
a(S'/data/ad6813/pipe-data/BlueboxTemp/199249.jpg'
p651
g3
(g4
(I0
tS'b'
tRp652
(I1
(I2
tg7
I00
S'\xd5\x89\x15?V\xec\xd4>'
tbtp653
a(S'/data/ad6813/pipe-data/BlueboxTemp/199262.jpg'
p654
g3
(g4
(I0
tS'b'
tRp655
(I1
(I2
tg7
I00
S'\x13\xf6\x0b?\xda\x13\xe8>'
tbtp656
a(S'/data/ad6813/pipe-data/BlueboxTemp/199266.jpg'
p657
g3
(g4
(I0
tS'b'
tRp658
(I1
(I2
tg7
I00
S'a\xa31?>\xb9\x9c>'
tbtp659
a(S'/data/ad6813/pipe-data/BlueboxTemp/199278.jpg'
p660
g3
(g4
(I0
tS'b'
tRp661
(I1
(I2
tg7
I00
S'\\\x1cU?\x90\x8e+>'
tbtp662
a(S'/data/ad6813/pipe-data/BlueboxTemp/199284.jpg'
p663
g3
(g4
(I0
tS'b'
tRp664
(I1
(I2
tg7
I00
S'_E ?Au\xbf>'
tbtp665
a(S'/data/ad6813/pipe-data/BlueboxTemp/199286.jpg'
p666
g3
(g4
(I0
tS'b'
tRp667
(I1
(I2
tg7
I00
S'\x90\x16\x16?\xdd\xd2\xd3>'
tbtp668
a(S'/data/ad6813/pipe-data/BlueboxTemp/199287.jpg'
p669
g3
(g4
(I0
tS'b'
tRp670
(I1
(I2
tg7
I00
S'\x89\x97\x06?\xee\xd0\xf2>'
tbtp671
a(S'/data/ad6813/pipe-data/BlueboxTemp/199288.jpg'
p672
g3
(g4
(I0
tS'b'
tRp673
(I1
(I2
tg7
I00
S'F\x1b0?t\xc9\x9f>'
tbtp674
a(S'/data/ad6813/pipe-data/BlueboxTemp/199327.jpg'
p675
g3
(g4
(I0
tS'b'
tRp676
(I1
(I2
tg7
I00
S'\x17\xe79?\xd01\x8c>'
tbtp677
a(S'/data/ad6813/pipe-data/BlueboxTemp/199328.jpg'
p678
g3
(g4
(I0
tS'b'
tRp679
(I1
(I2
tg7
I00
S'w\x16\x1a?\x12\xd3\xcb>'
tbtp680
a(S'/data/ad6813/pipe-data/BlueboxTemp/199354.jpg'
p681
g3
(g4
(I0
tS'b'
tRp682
(I1
(I2
tg7
I00
S'\x90\x11)?\xe0\xdc\xad>'
tbtp683
a(S'/data/ad6813/pipe-data/BlueboxTemp/199359.jpg'
p684
g3
(g4
(I0
tS'b'
tRp685
(I1
(I2
tg7
I00
S'\xd7@\x04?R~\xf7>'
tbtp686
a(S'/data/ad6813/pipe-data/BlueboxTemp/199360.jpg'
p687
g3
(g4
(I0
tS'b'
tRp688
(I1
(I2
tg7
I00
S'\x8d?,?\xe6\x80\xa7>'
tbtp689
a(S'/data/ad6813/pipe-data/BlueboxTemp/199368.jpg'
p690
g3
(g4
(I0
tS'b'
tRp691
(I1
(I2
tg7
I00
S'~\x07S?\x04\xe23>'
tbtp692
a(S'/data/ad6813/pipe-data/BlueboxTemp/199377.jpg'
p693
g3
(g4
(I0
tS'b'
tRp694
(I1
(I2
tg7
I00
S'\xf0\xcb6? h\x92>'
tbtp695
a(S'/data/ad6813/pipe-data/BlueboxTemp/199391.jpg'
p696
g3
(g4
(I0
tS'b'
tRp697
(I1
(I2
tg7
I00
S'\x15\x8b7?\xd6\xe9\x90>'
tbtp698
a(S'/data/ad6813/pipe-data/BlueboxTemp/199392.jpg'
p699
g3
(g4
(I0
tS'b'
tRp700
(I1
(I2
tg7
I00
S'\xfe4\x1c?\x02\x96\xc7>'
tbtp701
a(S'/data/ad6813/pipe-data/BlueboxTemp/199404.jpg'
p702
g3
(g4
(I0
tS'b'
tRp703
(I1
(I2
tg7
I00
S"'|!?\xb3\x07\xbd>"
tbtp704
a(S'/data/ad6813/pipe-data/BlueboxTemp/199417.jpg'
p705
g3
(g4
(I0
tS'b'
tRp706
(I1
(I2
tg7
I00
S'\x8e\x7fn?\x94\x03\x8c='
tbtp707
a(S'/data/ad6813/pipe-data/BlueboxTemp/199422.jpg'
p708
g3
(g4
(I0
tS'b'
tRp709
(I1
(I2
tg7
I00
S'tp]?5>\n>'
tbtp710
a(S'/data/ad6813/pipe-data/BlueboxTemp/199434.jpg'
p711
g3
(g4
(I0
tS'b'
tRp712
(I1
(I2
tg7
I00
S'\x9b\x0eW?\x91\xc5#>'
tbtp713
a(S'/data/ad6813/pipe-data/BlueboxTemp/199435.jpg'
p714
g3
(g4
(I0
tS'b'
tRp715
(I1
(I2
tg7
I00
S'z\rJ?\x14\xcaW>'
tbtp716
a(S'/data/ad6813/pipe-data/BlueboxTemp/199441.jpg'
p717
g3
(g4
(I0
tS'b'
tRp718
(I1
(I2
tg7
I00
S'q\xa6&>dVV?'
tbtp719
a(S'/data/ad6813/pipe-data/BlueboxTemp/199446.jpg'
p720
g3
(g4
(I0
tS'b'
tRp721
(I1
(I2
tg7
I00
S'\xb7\xbf\x9b>$ 2?'
tbtp722
a(S'/data/ad6813/pipe-data/BlueboxTemp/199447.jpg'
p723
g3
(g4
(I0
tS'b'
tRp724
(I1
(I2
tg7
I00
S'\xe6\xe5\x04?64\xf6>'
tbtp725
a(S'/data/ad6813/pipe-data/BlueboxTemp/199448.jpg'
p726
g3
(g4
(I0
tS'b'
tRp727
(I1
(I2
tg7
I00
S'~%\xe6>A\xed\x0c?'
tbtp728
a(S'/data/ad6813/pipe-data/BlueboxTemp/199451.jpg'
p729
g3
(g4
(I0
tS'b'
tRp730
(I1
(I2
tg7
I00
S'\xb7\x81T>\x93\xdfJ?'
tbtp731
a(S'/data/ad6813/pipe-data/BlueboxTemp/199454.jpg'
p732
g3
(g4
(I0
tS'b'
tRp733
(I1
(I2
tg7
I00
S'\xa6\xc5>>\x97NP?'
tbtp734
a(S'/data/ad6813/pipe-data/BlueboxTemp/199455.jpg'
p735
g3
(g4
(I0
tS'b'
tRp736
(I1
(I2
tg7
I00
S'\xa7\xf4\xaf>\xac\x05(?'
tbtp737
a(S'/data/ad6813/pipe-data/BlueboxTemp/199459.jpg'
p738
g3
(g4
(I0
tS'b'
tRp739
(I1
(I2
tg7
I00
S'\x8d\xdc\xbf>\xba\x11 ?'
tbtp740
a(S'/data/ad6813/pipe-data/BlueboxTemp/199460.jpg'
p741
g3
(g4
(I0
tS'b'
tRp742
(I1
(I2
tg7
I00
S'CC#?zy\xb9>'
tbtp743
a(S'/data/ad6813/pipe-data/BlueboxTemp/199465.jpg'
p744
g3
(g4
(I0
tS'b'
tRp745
(I1
(I2
tg7
I00
S'\xe4\x8b\x98>\x0f\xba3?'
tbtp746
a(S'/data/ad6813/pipe-data/BlueboxTemp/199469.jpg'
p747
g3
(g4
(I0
tS'b'
tRp748
(I1
(I2
tg7
I00
S'\x83F\x17?\xf9r\xd1>'
tbtp749
a(S'/data/ad6813/pipe-data/BlueboxTemp/199470.jpg'
p750
g3
(g4
(I0
tS'b'
tRp751
(I1
(I2
tg7
I00
S'\xbd\xd6\x0f?\x87R\xe0>'
tbtp752
a(S'/data/ad6813/pipe-data/BlueboxTemp/199472.jpg'
p753
g3
(g4
(I0
tS'b'
tRp754
(I1
(I2
tg7
I00
S'\xdf\t\x19?B\xec\xcd>'
tbtp755
a(S'/data/ad6813/pipe-data/BlueboxTemp/199475.jpg'
p756
g3
(g4
(I0
tS'b'
tRp757
(I1
(I2
tg7
I00
S'~\x9a\x07?\x04\xcb\xf0>'
tbtp758
a(S'/data/ad6813/pipe-data/BlueboxTemp/199479.jpg'
p759
g3
(g4
(I0
tS'b'
tRp760
(I1
(I2
tg7
I00
S'X\xcbu>+\x8dB?'
tbtp761
a(S'/data/ad6813/pipe-data/BlueboxTemp/199482.jpg'
p762
g3
(g4
(I0
tS'b'
tRp763
(I1
(I2
tg7
I00
S'\x89\xc2\x1e?\xecz\xc2>'
tbtp764
a(S'/data/ad6813/pipe-data/BlueboxTemp/199483.jpg'
p765
g3
(g4
(I0
tS'b'
tRp766
(I1
(I2
tg7
I00
S'\xad\xda\xc3>\xa8\x12\x1e?'
tbtp767
a(S'/data/ad6813/pipe-data/BlueboxTemp/199508.jpg'
p768
g3
(g4
(I0
tS'b'
tRp769
(I1
(I2
tg7
I00
S'\xa1PJ?}\xbdV>'
tbtp770
a(S'/data/ad6813/pipe-data/BlueboxTemp/199533.jpg'
p771
g3
(g4
(I0
tS'b'
tRp772
(I1
(I2
tg7
I00
S'j\xab\x07?,\xa9\xf0>'
tbtp773
a(S'/data/ad6813/pipe-data/BlueboxTemp/199535.jpg'
p774
g3
(g4
(I0
tS'b'
tRp775
(I1
(I2
tg7
I00
S'\x01*;?\xfe\xab\x89>'
tbtp776
a(S'/data/ad6813/pipe-data/BlueboxTemp/199584.jpg'
p777
g3
(g4
(I0
tS'b'
tRp778
(I1
(I2
tg7
I00
S'\xa2,\x19?\xbc\xa6\xcd>'
tbtp779
a(S'/data/ad6813/pipe-data/BlueboxTemp/199590.jpg'
p780
g3
(g4
(I0
tS'b'
tRp781
(I1
(I2
tg7
I00
S'\xe4\x7f\xaf>\x0f@(?'
tbtp782
a(S'/data/ad6813/pipe-data/BlueboxTemp/199600.jpg'
p783
g3
(g4
(I0
tS'b'
tRp784
(I1
(I2
tg7
I00
S'\x1a+L?\x9bSO>'
tbtp785
a(S'/data/ad6813/pipe-data/BlueboxTemp/199608.jpg'
p786
g3
(g4
(I0
tS'b'
tRp787
(I1
(I2
tg7
I00
S'\x1c\xad+?\xc9\xa5\xa8>'
tbtp788
a(S'/data/ad6813/pipe-data/BlueboxTemp/199609.jpg'
p789
g3
(g4
(I0
tS'b'
tRp790
(I1
(I2
tg7
I00
S'\xd1\n6?\\\xea\x93>'
tbtp791
a(S'/data/ad6813/pipe-data/BlueboxTemp/199636.jpg'
p792
g3
(g4
(I0
tS'b'
tRp793
(I1
(I2
tg7
I00
S'T\x0c\xab>\xd7y*?'
tbtp794
a(S'/data/ad6813/pipe-data/BlueboxTemp/199644.jpg'
p795
g3
(g4
(I0
tS'b'
tRp796
(I1
(I2
tg7
I00
S'\x00\xc9(?\xfem\xae>'
tbtp797
a(S'/data/ad6813/pipe-data/BlueboxTemp/199647.jpg'
p798
g3
(g4
(I0
tS'b'
tRp799
(I1
(I2
tg7
I00
S'I\x1f\xd9>[p\x13?'
tbtp800
a(S'/data/ad6813/pipe-data/BlueboxTemp/199651.jpg'
p801
g3
(g4
(I0
tS'b'
tRp802
(I1
(I2
tg7
I00
S'+%\x0f?\xab\xb5\xe1>'
tbtp803
a(S'/data/ad6813/pipe-data/BlueboxTemp/199664.jpg'
p804
g3
(g4
(I0
tS'b'
tRp805
(I1
(I2
tg7
I00
S'\x0f\xb9C?\xc2\x1bq>'
tbtp806
a(S'/data/ad6813/pipe-data/BlueboxTemp/199665.jpg'
p807
g3
(g4
(I0
tS'b'
tRp808
(I1
(I2
tg7
I00
S'\xeb\xd4$?(V\xb6>'
tbtp809
a(S'/data/ad6813/pipe-data/BlueboxTemp/199666.jpg'
p810
g3
(g4
(I0
tS'b'
tRp811
(I1
(I2
tg7
I00
S'\x12T\xe3>\xf7U\x0e?'
tbtp812
a(S'/data/ad6813/pipe-data/BlueboxTemp/199668.jpg'
p813
g3
(g4
(I0
tS'b'
tRp814
(I1
(I2
tg7
I00
S"\x8e\xd1'?\xe3\\\xb0>"
tbtp815
a(S'/data/ad6813/pipe-data/BlueboxTemp/199674.jpg'
p816
g3
(g4
(I0
tS'b'
tRp817
(I1
(I2
tg7
I00
S"b\xe8'?=/\xb0>"
tbtp818
a(S'/data/ad6813/pipe-data/BlueboxTemp/199684.jpg'
p819
g3
(g4
(I0
tS'b'
tRp820
(I1
(I2
tg7
I00
S'\xc2\xc69?{r\x8c>'
tbtp821
a(S'/data/ad6813/pipe-data/BlueboxTemp/199690.jpg'
p822
g3
(g4
(I0
tS'b'
tRp823
(I1
(I2
tg7
I00
S'\xa3e\x1e?\xba4\xc3>'
tbtp824
a(S'/data/ad6813/pipe-data/BlueboxTemp/199694.jpg'
p825
g3
(g4
(I0
tS'b'
tRp826
(I1
(I2
tg7
I00
S':FO?\x17\xe7B>'
tbtp827
a(S'/data/ad6813/pipe-data/BlueboxTemp/199695.jpg'
p828
g3
(g4
(I0
tS'b'
tRp829
(I1
(I2
tg7
I00
S'G\xdbC?\xe3\x92p>'
tbtp830
a(S'/data/ad6813/pipe-data/BlueboxTemp/199697.jpg'
p831
g3
(g4
(I0
tS'b'
tRp832
(I1
(I2
tg7
I00
S'\xf6\x80\xe3>\x85?\x0e?'
tbtp833
a(S'/data/ad6813/pipe-data/BlueboxTemp/199698.jpg'
p834
g3
(g4
(I0
tS'b'
tRp835
(I1
(I2
tg7
I00
S"\xb2.\xb0>\xa7\xe8'?"
tbtp836
a(S'/data/ad6813/pipe-data/BlueboxTemp/199699.jpg'
p837
g3
(g4
(I0
tS'b'
tRp838
(I1
(I2
tg7
I00
S'\x9d-\x0e?\xc5\xa4\xe3>'
tbtp839
a(S'/data/ad6813/pipe-data/BlueboxTemp/199700.jpg'
p840
g3
(g4
(I0
tS'b'
tRp841
(I1
(I2
tg7
I00
S'\xf0\xdc\x07? F\xf0>'
tbtp842
a(S'/data/ad6813/pipe-data/BlueboxTemp/199706.jpg'
p843
g3
(g4
(I0
tS'b'
tRp844
(I1
(I2
tg7
I00
S'IU\xb6>Z\xd5$?'
tbtp845
a(S'/data/ad6813/pipe-data/BlueboxTemp/199709.jpg'
p846
g3
(g4
(I0
tS'b'
tRp847
(I1
(I2
tg7
I00
S'!\x1b\x0f?\xbe\xc9\xe1>'
tbtp848
a(S'/data/ad6813/pipe-data/BlueboxTemp/199710.jpg'
p849
g3
(g4
(I0
tS'b'
tRp850
(I1
(I2
tg7
I00
S'!\x81\x13?\xbf\xfd\xd8>'
tbtp851
a(S'/data/ad6813/pipe-data/BlueboxTemp/199712.jpg'
p852
g3
(g4
(I0
tS'b'
tRp853
(I1
(I2
tg7
I00
S'\xec\xc6\\?R\xe4\x0c>'
tbtp854
a(S'/data/ad6813/pipe-data/BlueboxTemp/199714.jpg'
p855
g3
(g4
(I0
tS'b'
tRp856
(I1
(I2
tg7
I00
S'\x99\r%?\xce\xe4\xb5>'
tbtp857
a(S'/data/ad6813/pipe-data/BlueboxTemp/199717.jpg'
p858
g3
(g4
(I0
tS'b'
tRp859
(I1
(I2
tg7
I00
S"\xfb\xb1\xd1>\x02'\x17?"
tbtp860
a(S'/data/ad6813/pipe-data/BlueboxTemp/199719.jpg'
p861
g3
(g4
(I0
tS'b'
tRp862
(I1
(I2
tg7
I00
S'\x82\xfbP> \xc1K?'
tbtp863
a(S'/data/ad6813/pipe-data/BlueboxTemp/199722.jpg'
p864
g3
(g4
(I0
tS'b'
tRp865
(I1
(I2
tg7
I00
S'\x87=6?\xf4\x84\x93>'
tbtp866
a(S'/data/ad6813/pipe-data/BlueboxTemp/199732.jpg'
p867
g3
(g4
(I0
tS'b'
tRp868
(I1
(I2
tg7
I00
S'\x03\x9e\x01?\xf7\xc3\xfc>'
tbtp869
a(S'/data/ad6813/pipe-data/BlueboxTemp/199734.jpg'
p870
g3
(g4
(I0
tS'b'
tRp871
(I1
(I2
tg7
I00
S'\xddg$?G0\xb7>'
tbtp872
a(S'/data/ad6813/pipe-data/BlueboxTemp/199736.jpg'
p873
g3
(g4
(I0
tS'b'
tRp874
(I1
(I2
tg7
I00
S'\x1aw9?\xcb\x11\x8d>'
tbtp875
a(S'/data/ad6813/pipe-data/BlueboxTemp/199739.jpg'
p876
g3
(g4
(I0
tS'b'
tRp877
(I1
(I2
tg7
I00
S'\xc9X$?oN\xb7>'
tbtp878
a(S'/data/ad6813/pipe-data/BlueboxTemp/199740.jpg'
p879
g3
(g4
(I0
tS'b'
tRp880
(I1
(I2
tg7
I00
S'\xc5\xf5\x18?v\x14\xce>'
tbtp881
a(S'/data/ad6813/pipe-data/BlueboxTemp/199748.jpg'
p882
g3
(g4
(I0
tS'b'
tRp883
(I1
(I2
tg7
I00
S'7GO?&\xe3B>'
tbtp884
a(S'/data/ad6813/pipe-data/BlueboxTemp/199751.jpg'
p885
g3
(g4
(I0
tS'b'
tRp886
(I1
(I2
tg7
I00
S'\t\xd3\xea>|\x96\n?'
tbtp887
a(S'/data/ad6813/pipe-data/BlueboxTemp/199758.jpg'
p888
g3
(g4
(I0
tS'b'
tRp889
(I1
(I2
tg7
I00
S'\n.B?\xd6Gw>'
tbtp890
a(S'/data/ad6813/pipe-data/BlueboxTemp/199759.jpg'
p891
g3
(g4
(I0
tS'b'
tRp892
(I1
(I2
tg7
I00
S'2\xc0\x01?\x9d\x7f\xfc>'
tbtp893
a(S'/data/ad6813/pipe-data/BlueboxTemp/199772.jpg'
p894
g3
(g4
(I0
tS'b'
tRp895
(I1
(I2
tg7
I00
S'\x8c,&?\xe7\xa6\xb3>'
tbtp896
a(S'/data/ad6813/pipe-data/BlueboxTemp/199777.jpg'
p897
g3
(g4
(I0
tS'b'
tRp898
(I1
(I2
tg7
I00
S'\xac  ?\xa9\xbe\xbf>'
tbtp899
a(S'/data/ad6813/pipe-data/BlueboxTemp/199778.jpg'
p900
g3
(g4
(I0
tS'b'
tRp901
(I1
(I2
tg7
I00
S'\xb6\xb4\xe3>\xa5%\x0e?'
tbtp902
a(S'/data/ad6813/pipe-data/BlueboxTemp/199780.jpg'
p903
g3
(g4
(I0
tS'b'
tRp904
(I1
(I2
tg7
I00
S"m\xb9:?'\x8d\x8a>"
tbtp905
a(S'/data/ad6813/pipe-data/BlueboxTemp/199784.jpg'
p906
g3
(g4
(I0
tS'b'
tRp907
(I1
(I2
tg7
I00
S'W\xcb\x0e?Si\xe2>'
tbtp908
a(S'/data/ad6813/pipe-data/BlueboxTemp/199786.jpg'
p909
g3
(g4
(I0
tS'b'
tRp910
(I1
(I2
tg7
I00
S'\xc7\xe9"?t,\xba>'
tbtp911
a(S'/data/ad6813/pipe-data/BlueboxTemp/199799.jpg'
p912
g3
(g4
(I0
tS'b'
tRp913
(I1
(I2
tg7
I00
S'\x19\x9f\x04?\xcd\xc1\xf6>'
tbtp914
a(S'/data/ad6813/pipe-data/BlueboxTemp/199800.jpg'
p915
g3
(g4
(I0
tS'b'
tRp916
(I1
(I2
tg7
I00
S'|?\x1f?\x06\x81\xc1>'
tbtp917
a(S'/data/ad6813/pipe-data/BlueboxTemp/199807.jpg'
p918
g3
(g4
(I0
tS'b'
tRp919
(I1
(I2
tg7
I00
S'\xe3\x88n?\xea\xb8\x8b='
tbtp920
a(S'/data/ad6813/pipe-data/BlueboxTemp/199815.jpg'
p921
g3
(g4
(I0
tS'b'
tRp922
(I1
(I2
tg7
I00
S'\xb8@H?"\xfd^>'
tbtp923
a(S'/data/ad6813/pipe-data/BlueboxTemp/199817.jpg'
p924
g3
(g4
(I0
tS'b'
tRp925
(I1
(I2
tg7
I00
S'\xbd\xa2\xf7>\xa1.\x04?'
tbtp926
a(S'/data/ad6813/pipe-data/BlueboxTemp/199820.jpg'
p927
g3
(g4
(I0
tS'b'
tRp928
(I1
(I2
tg7
I00
S'\xce\x9bP?\xc6\x90=>'
tbtp929
a(S'/data/ad6813/pipe-data/BlueboxTemp/199821.jpg'
p930
g3
(g4
(I0
tS'b'
tRp931
(I1
(I2
tg7
I00
S'\x0ch=?\xea/\x85>'
tbtp932
a(S'/data/ad6813/pipe-data/BlueboxTemp/199825.jpg'
p933
g3
(g4
(I0
tS'b'
tRp934
(I1
(I2
tg7
I00
S'\xbcs\xf1>#F\x07?'
tbtp935
a(S'/data/ad6813/pipe-data/BlueboxTemp/199836.jpg'
p936
g3
(g4
(I0
tS'b'
tRp937
(I1
(I2
tg7
I00
S'b\xe7Z?zb\x14>'
tbtp938
a(S'/data/ad6813/pipe-data/BlueboxTemp/199838.jpg'
p939
g3
(g4
(I0
tS'b'
tRp940
(I1
(I2
tg7
I00
S'\x06n\x15?\xf3#\xd5>'
tbtp941
a(S'/data/ad6813/pipe-data/BlueboxTemp/199839.jpg'
p942
g3
(g4
(I0
tS'b'
tRp943
(I1
(I2
tg7
I00
S'/\x97\x03?\xa4\xd1\xf8>'
tbtp944
a(S'/data/ad6813/pipe-data/BlueboxTemp/199840.jpg'
p945
g3
(g4
(I0
tS'b'
tRp946
(I1
(I2
tg7
I00
S'\xcf\x97\x1e?c\xd0\xc2>'
tbtp947
a(S'/data/ad6813/pipe-data/BlueboxTemp/199844.jpg'
p948
g3
(g4
(I0
tS'b'
tRp949
(I1
(I2
tg7
I00
S"\xaf\x0e'?\xa4\xe2\xb1>"
tbtp950
a(S'/data/ad6813/pipe-data/BlueboxTemp/199850.jpg'
p951
g3
(g4
(I0
tS'b'
tRp952
(I1
(I2
tg7
I00
S'eGK?n\xe2R>'
tbtp953
a(S'/data/ad6813/pipe-data/BlueboxTemp/199851.jpg'
p954
g3
(g4
(I0
tS'b'
tRp955
(I1
(I2
tg7
I00
S'\x84\x89\x1f?\xf7\xec\xc0>'
tbtp956
a(S'/data/ad6813/pipe-data/BlueboxTemp/199861.jpg'
p957
g3
(g4
(I0
tS'b'
tRp958
(I1
(I2
tg7
I00
S'\xf2\xe8\xda>\x87\x8b\x12?'
tbtp959
a(S'/data/ad6813/pipe-data/BlueboxTemp/199866.jpg'
p960
g3
(g4
(I0
tS'b'
tRp961
(I1
(I2
tg7
I00
S'0\xd0\xdb>\xe7\x17\x12?'
tbtp962
a(S'/data/ad6813/pipe-data/BlueboxTemp/199869.jpg'
p963
g3
(g4
(I0
tS'b'
tRp964
(I1
(I2
tg7
I00
S'\x15\x1ft?\xb3\x0e>='
tbtp965
a(S'/data/ad6813/pipe-data/BlueboxTemp/199874.jpg'
p966
g3
(g4
(I0
tS'b'
tRp967
(I1
(I2
tg7
I00
S'\xe4o\x96>\x0f\xc84?'
tbtp968
a(S'/data/ad6813/pipe-data/BlueboxTemp/199878.jpg'
p969
g3
(g4
(I0
tS'b'
tRp970
(I1
(I2
tg7
I00
S'\xee\x9bk?\x93 \xa3='
tbtp971
a(S'/data/ad6813/pipe-data/BlueboxTemp/199892.jpg'
p972
g3
(g4
(I0
tS'b'
tRp973
(I1
(I2
tg7
I00
S'\x8d\x93G?\xcc\xb1a>'
tbtp974
a(S'/data/ad6813/pipe-data/BlueboxTemp/199904.jpg'
p975
g3
(g4
(I0
tS'b'
tRp976
(I1
(I2
tg7
I00
S'\xee\x14.?%\xd6\xa3>'
tbtp977
a(S'/data/ad6813/pipe-data/BlueboxTemp/199911.jpg'
p978
g3
(g4
(I0
tS'b'
tRp979
(I1
(I2
tg7
I00
S',\xb1<?\xa6\x9d\x86>'
tbtp980
a(S'/data/ad6813/pipe-data/BlueboxTemp/199913.jpg'
p981
g3
(g4
(I0
tS'b'
tRp982
(I1
(I2
tg7
I00
S'\xe7#\\?hp\x0f>'
tbtp983
a(S'/data/ad6813/pipe-data/BlueboxTemp/199915.jpg'
p984
g3
(g4
(I0
tS'b'
tRp985
(I1
(I2
tg7
I00
S'\xd3Vt?\xd7\x92:='
tbtp986
a(S'/data/ad6813/pipe-data/BlueboxTemp/199921.jpg'
p987
g3
(g4
(I0
tS'b'
tRp988
(I1
(I2
tg7
I00
S'\xdb\xb2u?V\xd2$='
tbtp989
a(S'/data/ad6813/pipe-data/BlueboxTemp/199924.jpg'
p990
g3
(g4
(I0
tS'b'
tRp991
(I1
(I2
tg7
I00
S'QU)?^U\xad>'
tbtp992
a(S'/data/ad6813/pipe-data/BlueboxTemp/199936.jpg'
p993
g3
(g4
(I0
tS'b'
tRp994
(I1
(I2
tg7
I00
S'8\xdb)?\x91I\xac>'
tbtp995
a(S'/data/ad6813/pipe-data/BlueboxTemp/199937.jpg'
p996
g3
(g4
(I0
tS'b'
tRp997
(I1
(I2
tg7
I00
S'27A?7#{>'
tbtp998
a(S'/data/ad6813/pipe-data/BlueboxTemp/199944.jpg'
p999
g3
(g4
(I0
tS'b'
tRp1000
(I1
(I2
tg7
I00
S'\xc7*\xf9>\x9cj\x03?'
tbtp1001
a(S'/data/ad6813/pipe-data/BlueboxTemp/199950.jpg'
p1002
g3
(g4
(I0
tS'b'
tRp1003
(I1
(I2
tg7
I00
S'\xa8J\x0c?\xb3j\xe7>'
tbtp1004
a(S'/data/ad6813/pipe-data/BlueboxTemp/199959.jpg'
p1005
g3
(g4
(I0
tS'b'
tRp1006
(I1
(I2
tg7
I00
S'7\x076?\x92\xf1\x93>'
tbtp1007
a(S'/data/ad6813/pipe-data/BlueboxTemp/199964.jpg'
p1008
g3
(g4
(I0
tS'b'
tRp1009
(I1
(I2
tg7
I00
S'\xbe\xe3\xc7>!\x0e\x1c?'
tbtp1010
a(S'/data/ad6813/pipe-data/BlueboxTemp/199968.jpg'
p1011
g3
(g4
(I0
tS'b'
tRp1012
(I1
(I2
tg7
I00
S'\xbe\xf1\t?\x83\x1c\xec>'
tbtp1013
a(S'/data/ad6813/pipe-data/BlueboxTemp/199981.jpg'
p1014
g3
(g4
(I0
tS'b'
tRp1015
(I1
(I2
tg7
I00
S'b\xe5)?=5\xac>'
tbtp1016
a(S'/data/ad6813/pipe-data/BlueboxTemp/199982.jpg'
p1017
g3
(g4
(I0
tS'b'
tRp1018
(I1
(I2
tg7
I00
S'\xd6C\xe4>\x15\xde\r?'
tbtp1019
a(S'/data/ad6813/pipe-data/BlueboxTemp/199990.jpg'
p1020
g3
(g4
(I0
tS'b'
tRp1021
(I1
(I2
tg7
I00
S'\xcf\xf9&?b\x0c\xb2>'
tbtp1022
a(S'/data/ad6813/pipe-data/BlueboxTemp/199993.jpg'
p1023
g3
(g4
(I0
tS'b'
tRp1024
(I1
(I2
tg7
I00
S'\x1dR\xdc>\xf2\xd6\x11?'
tbtp1025
a(S'/data/ad6813/pipe-data/BlueboxTemp/199996.jpg'
p1026
g3
(g4
(I0
tS'b'
tRp1027
(I1
(I2
tg7
I00
S'\xbc\xacf?\x1f\x9a\xca='
tbtp1028
a(S'/data/ad6813/pipe-data/BlueboxTemp/200001.jpg'
p1029
g3
(g4
(I0
tS'b'
tRp1030
(I1
(I2
tg7
I00
S'\xdd\xff\x10?E\x00\xde>'
tbtp1031
a(S'/data/ad6813/pipe-data/BlueboxTemp/200013.jpg'
p1032
g3
(g4
(I0
tS'b'
tRp1033
(I1
(I2
tg7
I00
S'\xc7Y"?tL\xbb>'
tbtp1034
a(S'/data/ad6813/pipe-data/BlueboxTemp/200014.jpg'
p1035
g3
(g4
(I0
tS'b'
tRp1036
(I1
(I2
tg7
I00
S'U\xeeB?\xb1Ft>'
tbtp1037
a(S'/data/ad6813/pipe-data/BlueboxTemp/200028.jpg'
p1038
g3
(g4
(I0
tS'b'
tRp1039
(I1
(I2
tg7
I00
S'\xeft\xfe>\x88\xc5\x00?'
tbtp1040
a(S'/data/ad6813/pipe-data/BlueboxTemp/200030.jpg'
p1041
g3
(g4
(I0
tS'b'
tRp1042
(I1
(I2
tg7
I00
S'}\xa0\x00?\x07\xbf\xfe>'
tbtp1043
a(S'/data/ad6813/pipe-data/BlueboxTemp/200045.jpg'
p1044
g3
(g4
(I0
tS'b'
tRp1045
(I1
(I2
tg7
I00
S'\x9d_\x01?\xc8@\xfd>'
tbtp1046
a(S'/data/ad6813/pipe-data/BlueboxTemp/200046.jpg'
p1047
g3
(g4
(I0
tS'b'
tRp1048
(I1
(I2
tg7
I00
S'\x8e\xa4\xe1>\xba-\x0f?'
tbtp1049
a(S'/data/ad6813/pipe-data/BlueboxTemp/200051.jpg'
p1050
g3
(g4
(I0
tS'b'
tRp1051
(I1
(I2
tg7
I00
S'\xc0\xd3\xcc>\x1f\x96\x19?'
tbtp1052
a(S'/data/ad6813/pipe-data/BlueboxTemp/200053.jpg'
p1053
g3
(g4
(I0
tS'b'
tRp1054
(I1
(I2
tg7
I00
S'\xd4\xee\x19?Z"\xcc>'
tbtp1055
a(S'/data/ad6813/pipe-data/BlueboxTemp/200070.jpg'
p1056
g3
(g4
(I0
tS'b'
tRp1057
(I1
(I2
tg7
I00
S'\xe4\xdd\xc0>\x0e\x91\x1f?'
tbtp1058
a(S'/data/ad6813/pipe-data/BlueboxTemp/200072.jpg'
p1059
g3
(g4
(I0
tS'b'
tRp1060
(I1
(I2
tg7
I00
S'\x8a\xaf\xdc>;\xa8\x11?'
tbtp1061
a(S'/data/ad6813/pipe-data/BlueboxTemp/200093.jpg'
p1062
g3
(g4
(I0
tS'b'
tRp1063
(I1
(I2
tg7
I00
S'\x93X*?\xdaN\xab>'
tbtp1064
a(S'/data/ad6813/pipe-data/BlueboxTemp/200098.jpg'
p1065
g3
(g4
(I0
tS'b'
tRp1066
(I1
(I2
tg7
I00
S'\xa0\xba\x15?\xc0\x8a\xd4>'
tbtp1067
a(S'/data/ad6813/pipe-data/BlueboxTemp/200106.jpg'
p1068
g3
(g4
(I0
tS'b'
tRp1069
(I1
(I2
tg7
I00
S'\xc2H\x0b?|n\xe9>'
tbtp1070
a(S'/data/ad6813/pipe-data/BlueboxTemp/200111.jpg'
p1071
g3
(g4
(I0
tS'b'
tRp1072
(I1
(I2
tg7
I00
S'M\xf4\xb6>\xd8\x85$?'
tbtp1073
a(S'/data/ad6813/pipe-data/BlueboxTemp/200112.jpg'
p1074
g3
(g4
(I0
tS'b'
tRp1075
(I1
(I2
tg7
I00
S'F\x88\xf4>\xdc\xbb\x05?'
tbtp1076
a(S'/data/ad6813/pipe-data/BlueboxTemp/200117.jpg'
p1077
g3
(g4
(I0
tS'b'
tRp1078
(I1
(I2
tg7
I00
S'\xe66\xfb>\x8dd\x02?'
tbtp1079
a(S'/data/ad6813/pipe-data/BlueboxTemp/200121.jpg'
p1080
g3
(g4
(I0
tS'b'
tRp1081
(I1
(I2
tg7
I00
S'\xceP\xf4>\x98\xd7\x05?'
tbtp1082
a(S'/data/ad6813/pipe-data/BlueboxTemp/200122.jpg'
p1083
g3
(g4
(I0
tS'b'
tRp1084
(I1
(I2
tg7
I00
S'c\xdd\xae>O\x91(?'
tbtp1085
a(S'/data/ad6813/pipe-data/BlueboxTemp/200130.jpg'
p1086
g3
(g4
(I0
tS'b'
tRp1087
(I1
(I2
tg7
I00
S'\xd4\xe2\x0c?Z:\xe6>'
tbtp1088
a(S'/data/ad6813/pipe-data/BlueboxTemp/200131.jpg'
p1089
g3
(g4
(I0
tS'b'
tRp1090
(I1
(I2
tg7
I00
S'\xde\xd8Q?\x86\x9c8>'
tbtp1091
a(S'/data/ad6813/pipe-data/BlueboxTemp/200136.jpg'
p1092
g3
(g4
(I0
tS'b'
tRp1093
(I1
(I2
tg7
I00
S'8\xf0\xa5>\xe4\x07-?'
tbtp1094
a(S'/data/ad6813/pipe-data/BlueboxTemp/200147.jpg'
p1095
g3
(g4
(I0
tS'b'
tRp1096
(I1
(I2
tg7
I00
S'Q\xdd\x01?]E\xfc>'
tbtp1097
a(S'/data/ad6813/pipe-data/BlueboxTemp/200150.jpg'
p1098
g3
(g4
(I0
tS'b'
tRp1099
(I1
(I2
tg7
I00
S'\xa8sD?_1n>'
tbtp1100
a(S'/data/ad6813/pipe-data/BlueboxTemp/200153.jpg'
p1101
g3
(g4
(I0
tS'b'
tRp1102
(I1
(I2
tg7
I00
S' _g?\x07\x07\xc5='
tbtp1103
a(S'/data/ad6813/pipe-data/BlueboxTemp/200157.jpg'
p1104
g3
(g4
(I0
tS'b'
tRp1105
(I1
(I2
tg7
I00
S'\xfb\xb8!?\r\x8e\xbc>'
tbtp1106
a(S'/data/ad6813/pipe-data/BlueboxTemp/200158.jpg'
p1107
g3
(g4
(I0
tS'b'
tRp1108
(I1
(I2
tg7
I00
S'\x1e\xc2-?\xc4{\xa4>'
tbtp1109
a(S'/data/ad6813/pipe-data/BlueboxTemp/200161.jpg'
p1110
g3
(g4
(I0
tS'b'
tRp1111
(I1
(I2
tg7
I00
S'|\xc6,?\x08s\xa6>'
tbtp1112
a(S'/data/ad6813/pipe-data/BlueboxTemp/200162.jpg'
p1113
g3
(g4
(I0
tS'b'
tRp1114
(I1
(I2
tg7
I00
S'}e!?\x035\xbd>'
tbtp1115
a(S'/data/ad6813/pipe-data/BlueboxTemp/200165.jpg'
p1116
g3
(g4
(I0
tS'b'
tRp1117
(I1
(I2
tg7
I00
S'L\xb1j>\xacSE?'
tbtp1118
a(S'/data/ad6813/pipe-data/BlueboxTemp/200173.jpg'
p1119
g3
(g4
(I0
tS'b'
tRp1120
(I1
(I2
tg7
I00
S'P\xfcJ?\xbe\x0eT>'
tbtp1121
a(S'/data/ad6813/pipe-data/BlueboxTemp/200174.jpg'
p1122
g3
(g4
(I0
tS'b'
tRp1123
(I1
(I2
tg7
I00
S'G\x19>?r\xcd\x83>'
tbtp1124
a(S'/data/ad6813/pipe-data/BlueboxTemp/200193.jpg'
p1125
g3
(g4
(I0
tS'b'
tRp1126
(I1
(I2
tg7
I00
S'\xdb.%?I\xa2\xb5>'
tbtp1127
a(S'/data/ad6813/pipe-data/BlueboxTemp/200196.jpg'
p1128
g3
(g4
(I0
tS'b'
tRp1129
(I1
(I2
tg7
I00
S'\xe8\xa0\x1c?0\xbe\xc6>'
tbtp1130
a(S'/data/ad6813/pipe-data/BlueboxTemp/200197.jpg'
p1131
g3
(g4
(I0
tS'b'
tRp1132
(I1
(I2
tg7
I00
S'\xff\xf8\x17?\x01\x0e\xd0>'
tbtp1133
a(S'/data/ad6813/pipe-data/BlueboxTemp/200200.jpg'
p1134
g3
(g4
(I0
tS'b'
tRp1135
(I1
(I2
tg7
I00
S'K!\x0e?h\xbd\xe3>'
tbtp1136
a(S'/data/ad6813/pipe-data/BlueboxTemp/200203.jpg'
p1137
g3
(g4
(I0
tS'b'
tRp1138
(I1
(I2
tg7
I00
S'\xcal\x03?j&\xf9>'
tbtp1139
a(S'/data/ad6813/pipe-data/BlueboxTemp/200204.jpg'
p1140
g3
(g4
(I0
tS'b'
tRp1141
(I1
(I2
tg7
I00
S'\xad\x800?\xa6\xfe\x9e>'
tbtp1142
a(S'/data/ad6813/pipe-data/BlueboxTemp/200207.jpg'
p1143
g3
(g4
(I0
tS'b'
tRp1144
(I1
(I2
tg7
I00
S'v\xc2`?W\xec\xf9='
tbtp1145
a(S'/data/ad6813/pipe-data/BlueboxTemp/200208.jpg'
p1146
g3
(g4
(I0
tS'b'
tRp1147
(I1
(I2
tg7
I00
S'\x8c\xa5\x1c?\xe6\xb4\xc6>'
tbtp1148
a(S'/data/ad6813/pipe-data/BlueboxTemp/200210.jpg'
p1149
g3
(g4
(I0
tS'b'
tRp1150
(I1
(I2
tg7
I00
S'\x03\x05F?\xf7\xebg>'
tbtp1151
a(S'/data/ad6813/pipe-data/BlueboxTemp/200224.jpg'
p1152
g3
(g4
(I0
tS'b'
tRp1153
(I1
(I2
tg7
I00
S'Cr2?{\x1b\x9b>'
tbtp1154
a(S'/data/ad6813/pipe-data/BlueboxTemp/200229.jpg'
p1155
g3
(g4
(I0
tS'b'
tRp1156
(I1
(I2
tg7
I00
S'\xdd\xe2\x04?E:\xf6>'
tbtp1157
a(S'/data/ad6813/pipe-data/BlueboxTemp/200230.jpg'
p1158
g3
(g4
(I0
tS'b'
tRp1159
(I1
(I2
tg7
I00
S'\xe8*\xf4>\x8d\xea\x05?'
tbtp1160
a(S'/data/ad6813/pipe-data/BlueboxTemp/200237.jpg'
p1161
g3
(g4
(I0
tS'b'
tRp1162
(I1
(I2
tg7
I00
S'\xe7\xc5H?f\xe8\\>'
tbtp1163
a(S'/data/ad6813/pipe-data/BlueboxTemp/200238.jpg'
p1164
g3
(g4
(I0
tS'b'
tRp1165
(I1
(I2
tg7
I00
S'\xfa\x9c\xf1>\x831\x07?'
tbtp1166
a(S'/data/ad6813/pipe-data/BlueboxTemp/200239.jpg'
p1167
g3
(g4
(I0
tS'b'
tRp1168
(I1
(I2
tg7
I00
S'_\xaa\xfe>\xd1\xaa\x00?'
tbtp1169
a(S'/data/ad6813/pipe-data/BlueboxTemp/200240.jpg'
p1170
g3
(g4
(I0
tS'b'
tRp1171
(I1
(I2
tg7
I00
S'DQF?\xf0\xbaf>'
tbtp1172
a(S'/data/ad6813/pipe-data/BlueboxTemp/200243.jpg'
p1173
g3
(g4
(I0
tS'b'
tRp1174
(I1
(I2
tg7
I00
S':\x06\x17?\x8d\xf3\xd1>'
tbtp1175
a(S'/data/ad6813/pipe-data/BlueboxTemp/200249.jpg'
p1176
g3
(g4
(I0
tS'b'
tRp1177
(I1
(I2
tg7
I00
S'\x94\x98\xbb>\xb73"?'
tbtp1178
a(S'/data/ad6813/pipe-data/BlueboxTemp/200250.jpg'
p1179
g3
(g4
(I0
tS'b'
tRp1180
(I1
(I2
tg7
I00
S'7\x84\x99>\xe4=3?'
tbtp1181
a(S'/data/ad6813/pipe-data/BlueboxTemp/200255.jpg'
p1182
g3
(g4
(I0
tS'b'
tRp1183
(I1
(I2
tg7
I00
S"\xb3g\xef>'L\x08?"
tbtp1184
a(S'/data/ad6813/pipe-data/BlueboxTemp/200258.jpg'
p1185
g3
(g4
(I0
tS'b'
tRp1186
(I1
(I2
tg7
I00
S'v\xdc\x07?\x16G\xf0>'
tbtp1187
a(S'/data/ad6813/pipe-data/BlueboxTemp/200259.jpg'
p1188
g3
(g4
(I0
tS'b'
tRp1189
(I1
(I2
tg7
I00
S'\xa6\xdd\x1a?\xb6D\xca>'
tbtp1190
a(S'/data/ad6813/pipe-data/BlueboxTemp/200269.jpg'
p1191
g3
(g4
(I0
tS'b'
tRp1192
(I1
(I2
tg7
I00
S'pH)? o\xad>'
tbtp1193
a(S'/data/ad6813/pipe-data/BlueboxTemp/200270.jpg'
p1194
g3
(g4
(I0
tS'b'
tRp1195
(I1
(I2
tg7
I00
S'o\x8cW?F\xce!>'
tbtp1196
a(S'/data/ad6813/pipe-data/BlueboxTemp/200271.jpg'
p1197
g3
(g4
(I0
tS'b'
tRp1198
(I1
(I2
tg7
I00
S'\xa9Qu?c\xe5*='
tbtp1199
a(S'/data/ad6813/pipe-data/BlueboxTemp/200279.jpg'
p1200
g3
(g4
(I0
tS'b'
tRp1201
(I1
(I2
tg7
I00
S'\xec\xa8,?(\xae\xa6>'
tbtp1202
a(S'/data/ad6813/pipe-data/BlueboxTemp/200281.jpg'
p1203
g3
(g4
(I0
tS'b'
tRp1204
(I1
(I2
tg7
I00
S'&\xc6\xfd>\xee\x1c\x01?'
tbtp1205
a(S'/data/ad6813/pipe-data/BlueboxTemp/200282.jpg'
p1206
g3
(g4
(I0
tS'b'
tRp1207
(I1
(I2
tg7
I00
S'I\xa2E?\xdevi>'
tbtp1208
a(S'/data/ad6813/pipe-data/BlueboxTemp/200293.jpg'
p1209
g3
(g4
(I0
tS'b'
tRp1210
(I1
(I2
tg7
I00
S'\x08@r?y\xff[='
tbtp1211
a(S'/data/ad6813/pipe-data/BlueboxTemp/200304.jpg'
p1212
g3
(g4
(I0
tS'b'
tRp1213
(I1
(I2
tg7
I00
S'\xae\\#?\xa5F\xb9>'
tbtp1214
a(S'/data/ad6813/pipe-data/BlueboxTemp/200305.jpg'
p1215
g3
(g4
(I0
tS'b'
tRp1216
(I1
(I2
tg7
I00
S'\xb8Z\x1d?\x90J\xc5>'
tbtp1217
a(S'/data/ad6813/pipe-data/BlueboxTemp/200308.jpg'
p1218
g3
(g4
(I0
tS'b'
tRp1219
(I1
(I2
tg7
I00
S'{\x93T?\x16\xb2->'
tbtp1220
a(S'/data/ad6813/pipe-data/BlueboxTemp/200309.jpg'
p1221
g3
(g4
(I0
tS'b'
tRp1222
(I1
(I2
tg7
I00
S'\x86\re?\xcc\x93\xd7='
tbtp1223
a(S'/data/ad6813/pipe-data/BlueboxTemp/200314.jpg'
p1224
g3
(g4
(I0
tS'b'
tRp1225
(I1
(I2
tg7
I00
S':i]?\x18[\n>'
tbtp1226
a(S'/data/ad6813/pipe-data/BlueboxTemp/200315.jpg'
p1227
g3
(g4
(I0
tS'b'
tRp1228
(I1
(I2
tg7
I00
S'f\xbfN?i\x02E>'
tbtp1229
a(S'/data/ad6813/pipe-data/BlueboxTemp/200323.jpg'
p1230
g3
(g4
(I0
tS'b'
tRp1231
(I1
(I2
tg7
I00
S'c\xafB?rBu>'
tbtp1232
a(S'/data/ad6813/pipe-data/BlueboxTemp/200336.jpg'
p1233
g3
(g4
(I0
tS'b'
tRp1234
(I1
(I2
tg7
I00
S'0~\x11?\xa0\x03\xdd>'
tbtp1235
a(S'/data/ad6813/pipe-data/BlueboxTemp/200337.jpg'
p1236
g3
(g4
(I0
tS'b'
tRp1237
(I1
(I2
tg7
I00
S'\x9a=\x00?\xcc\x84\xff>'
tbtp1238
a(S'/data/ad6813/pipe-data/BlueboxTemp/200340.jpg'
p1239
g3
(g4
(I0
tS'b'
tRp1240
(I1
(I2
tg7
I00
S'q\x8a\r?\x1d\xeb\xe4>'
tbtp1241
a(S'/data/ad6813/pipe-data/BlueboxTemp/200353.jpg'
p1242
g3
(g4
(I0
tS'b'
tRp1243
(I1
(I2
tg7
I00
S'#\x00\x17?\xbb\xff\xd1>'
tbtp1244
a(S'/data/ad6813/pipe-data/BlueboxTemp/200355.jpg'
p1245
g3
(g4
(I0
tS'b'
tRp1246
(I1
(I2
tg7
I00
S'<w1?\x88\x11\x9d>'
tbtp1247
a(S'/data/ad6813/pipe-data/BlueboxTemp/200359.jpg'
p1248
g3
(g4
(I0
tS'b'
tRp1249
(I1
(I2
tg7
I00
S'\xf6.\x14?\x12\xa2\xd7>'
tbtp1250
a(S'/data/ad6813/pipe-data/BlueboxTemp/200360.jpg'
p1251
g3
(g4
(I0
tS'b'
tRp1252
(I1
(I2
tg7
I00
S'\xe0K\x0c?>h\xe7>'
tbtp1253
a(S'/data/ad6813/pipe-data/BlueboxTemp/200375.jpg'
p1254
g3
(g4
(I0
tS'b'
tRp1255
(I1
(I2
tg7
I00
S'\xb5\x17C?+\xa1s>'
tbtp1256
a(S'/data/ad6813/pipe-data/BlueboxTemp/200381.jpg'
p1257
g3
(g4
(I0
tS'b'
tRp1258
(I1
(I2
tg7
I00
S'I\x826?n\xfb\x92>'
tbtp1259
a(S'/data/ad6813/pipe-data/BlueboxTemp/200382.jpg'
p1260
g3
(g4
(I0
tS'b'
tRp1261
(I1
(I2
tg7
I00
S'\xc7\x9c,?q\xc6\xa6>'
tbtp1262
a(S'/data/ad6813/pipe-data/BlueboxTemp/200383.jpg'
p1263
g3
(g4
(I0
tS'b'
tRp1264
(I1
(I2
tg7
I00
S'3Q)?\x9c]\xad>'
tbtp1265
a(S'/data/ad6813/pipe-data/BlueboxTemp/200384.jpg'
p1266
g3
(g4
(I0
tS'b'
tRp1267
(I1
(I2
tg7
I00
S'\xc2 Y?\xfb|\x1b>'
tbtp1268
a(S'/data/ad6813/pipe-data/BlueboxTemp/200397.jpg'
p1269
g3
(g4
(I0
tS'b'
tRp1270
(I1
(I2
tg7
I00
S'p0.? \x9f\xa3>'
tbtp1271
a(S'/data/ad6813/pipe-data/BlueboxTemp/200399.jpg'
p1272
g3
(g4
(I0
tS'b'
tRp1273
(I1
(I2
tg7
I00
S'\x01\x96N?\xfb\xa7E>'
tbtp1274
a(S'/data/ad6813/pipe-data/BlueboxTemp/200401.jpg'
p1275
g3
(g4
(I0
tS'b'
tRp1276
(I1
(I2
tg7
I00
S'R\x8e\xe5>\xd88\r?'
tbtp1277
a(S'/data/ad6813/pipe-data/BlueboxTemp/200403.jpg'
p1278
g3
(g4
(I0
tS'b'
tRp1279
(I1
(I2
tg7
I00
S'\xb5\xdd\x1c?\x96D\xc6>'
tbtp1280
a(S'/data/ad6813/pipe-data/BlueboxTemp/200409.jpg'
p1281
g3
(g4
(I0
tS'b'
tRp1282
(I1
(I2
tg7
I00
S'\x18z\x1c?\xd3\x0b\xc7>'
tbtp1283
a(S'/data/ad6813/pipe-data/BlueboxTemp/200410.jpg'
p1284
g3
(g4
(I0
tS'b'
tRp1285
(I1
(I2
tg7
I00
S'\xdd&*?E\xb2\xab>'
tbtp1286
a(S'/data/ad6813/pipe-data/BlueboxTemp/200414.jpg'
p1287
g3
(g4
(I0
tS'b'
tRp1288
(I1
(I2
tg7
I00
S'E\xcd ?we\xbe>'
tbtp1289
a(S'/data/ad6813/pipe-data/BlueboxTemp/200417.jpg'
p1290
g3
(g4
(I0
tS'b'
tRp1291
(I1
(I2
tg7
I00
S'\xd8\xe9*?O,\xaa>'
tbtp1292
a(S'/data/ad6813/pipe-data/BlueboxTemp/200421.jpg'
p1293
g3
(g4
(I0
tS'b'
tRp1294
(I1
(I2
tg7
I00
S'<\xf2\x0e?\x89\x1b\xe2>'
tbtp1295
a(S'/data/ad6813/pipe-data/BlueboxTemp/200424.jpg'
p1296
g3
(g4
(I0
tS'b'
tRp1297
(I1
(I2
tg7
I00
S"\x15\x08V?\xae\xdf'>"
tbtp1298
a(S'/data/ad6813/pipe-data/BlueboxTemp/200437.jpg'
p1299
g3
(g4
(I0
tS'b'
tRp1300
(I1
(I2
tg7
I00
S',\xcfA?P\xc3x>'
tbtp1301
a(S'/data/ad6813/pipe-data/BlueboxTemp/200440.jpg'
p1302
g3
(g4
(I0
tS'b'
tRp1303
(I1
(I2
tg7
I00
S']\xf9E?\x8c\x1ah>'
tbtp1304
a(S'/data/ad6813/pipe-data/BlueboxTemp/200449.jpg'
p1305
g3
(g4
(I0
tS'b'
tRp1306
(I1
(I2
tg7
I00
S' \xc1 ?\xc1}\xbe>'
tbtp1307
a(S'/data/ad6813/pipe-data/BlueboxTemp/200451.jpg'
p1308
g3
(g4
(I0
tS'b'
tRp1309
(I1
(I2
tg7
I00
S'\x0c{1?\xe7\t\x9d>'
tbtp1310
a(S'/data/ad6813/pipe-data/BlueboxTemp/200459.jpg'
p1311
g3
(g4
(I0
tS'b'
tRp1312
(I1
(I2
tg7
I00
S'\x14E\xaf>u](?'
tbtp1313
a(S'/data/ad6813/pipe-data/BlueboxTemp/200461.jpg'
p1314
g3
(g4
(I0
tS'b'
tRp1315
(I1
(I2
tg7
I00
S'\xb0\xd0(?\xa0^\xae>'
tbtp1316
a(S'/data/ad6813/pipe-data/BlueboxTemp/200469.jpg'
p1317
g3
(g4
(I0
tS'b'
tRp1318
(I1
(I2
tg7
I00
S'\xc4\x97\x0e?z\xd0\xe2>'
tbtp1319
a(S'/data/ad6813/pipe-data/BlueboxTemp/200472.jpg'
p1320
g3
(g4
(I0
tS'b'
tRp1321
(I1
(I2
tg7
I00
S'\x8cG\x12?\xe7p\xdb>'
tbtp1322
a(S'/data/ad6813/pipe-data/BlueboxTemp/200478.jpg'
p1323
g3
(g4
(I0
tS'b'
tRp1324
(I1
(I2
tg7
I00
S'\x88\x93;?\xf2\xd8\x88>'
tbtp1325
a(S'/data/ad6813/pipe-data/BlueboxTemp/200485.jpg'
p1326
g3
(g4
(I0
tS'b'
tRp1327
(I1
(I2
tg7
I00
S'\xb5\xc4-?\x96v\xa4>'
tbtp1328
a(S'/data/ad6813/pipe-data/BlueboxTemp/200518.jpg'
p1329
g3
(g4
(I0
tS'b'
tRp1330
(I1
(I2
tg7
I00
S'\xdf\xac"?B\xa6\xba>'
tbtp1331
a(S'/data/ad6813/pipe-data/BlueboxTemp/200519.jpg'
p1332
g3
(g4
(I0
tS'b'
tRp1333
(I1
(I2
tg7
I00
S'\x1eO ?\xc4a\xbf>'
tbtp1334
a(S'/data/ad6813/pipe-data/BlueboxTemp/200522.jpg'
p1335
g3
(g4
(I0
tS'b'
tRp1336
(I1
(I2
tg7
I00
S'\xe6\x968?4\xd2\x8e>'
tbtp1337
a(S'/data/ad6813/pipe-data/BlueboxTemp/200534.jpg'
p1338
g3
(g4
(I0
tS'b'
tRp1339
(I1
(I2
tg7
I00
S'X]1?QE\x9d>'
tbtp1340
a(S'/data/ad6813/pipe-data/BlueboxTemp/200537.jpg'
p1341
g3
(g4
(I0
tS'b'
tRp1342
(I1
(I2
tg7
I00
S':\xdb\xf3>c\x12\x06?'
tbtp1343
a(S'/data/ad6813/pipe-data/BlueboxTemp/200543.jpg'
p1344
g3
(g4
(I0
tS'b'
tRp1345
(I1
(I2
tg7
I00
S'Rv+?\\\x13\xa9>'
tbtp1346
a(S'/data/ad6813/pipe-data/BlueboxTemp/200553.jpg'
p1347
g3
(g4
(I0
tS'b'
tRp1348
(I1
(I2
tg7
I00
S'\x7f;\x11?\x03\x89\xdd>'
tbtp1349
a(S'/data/ad6813/pipe-data/BlueboxTemp/200560.jpg'
p1350
g3
(g4
(I0
tS'b'
tRp1351
(I1
(I2
tg7
I00
S'u\x88\xd9>\xc5;\x13?'
tbtp1352
a(S'/data/ad6813/pipe-data/BlueboxTemp/200561.jpg'
p1353
g3
(g4
(I0
tS'b'
tRp1354
(I1
(I2
tg7
I00
S'HL!?pg\xbd>'
tbtp1355
a(S'/data/ad6813/pipe-data/BlueboxTemp/200565.jpg'
p1356
g3
(g4
(I0
tS'b'
tRp1357
(I1
(I2
tg7
I00
S'=\xa0\x14?\x84\xbf\xd6>'
tbtp1358
a(S'/data/ad6813/pipe-data/BlueboxTemp/200566.jpg'
p1359
g3
(g4
(I0
tS'b'
tRp1360
(I1
(I2
tg7
I00
S'W\x9d\x08?Q\xc5\xee>'
tbtp1361
a(S'/data/ad6813/pipe-data/BlueboxTemp/200569.jpg'
p1362
g3
(g4
(I0
tS'b'
tRp1363
(I1
(I2
tg7
I00
S'\xa5+:?\xb4\xa8\x8b>'
tbtp1364
a(S'/data/ad6813/pipe-data/BlueboxTemp/200571.jpg'
p1365
g3
(g4
(I0
tS'b'
tRp1366
(I1
(I2
tg7
I00
S'\x90x\x12?\xe0\x0e\xdb>'
tbtp1367
a(S'/data/ad6813/pipe-data/BlueboxTemp/200579.jpg'
p1368
g3
(g4
(I0
tS'b'
tRp1369
(I1
(I2
tg7
I00
S'\xab\xb5-?\xac\x94\xa4>'
tbtp1370
a(S'/data/ad6813/pipe-data/BlueboxTemp/200588.jpg'
p1371
g3
(g4
(I0
tS'b'
tRp1372
(I1
(I2
tg7
I00
S'[\x7f+?J\x01\xa9>'
tbtp1373
a(S'/data/ad6813/pipe-data/BlueboxTemp/200590.jpg'
p1374
g3
(g4
(I0
tS'b'
tRp1375
(I1
(I2
tg7
I00
S'\x88z3?\xf0\n\x99>'
tbtp1376
a(S'/data/ad6813/pipe-data/BlueboxTemp/200591.jpg'
p1377
g3
(g4
(I0
tS'b'
tRp1378
(I1
(I2
tg7
I00
S'\xee\x00O?E\xfcC>'
tbtp1379
a(S'/data/ad6813/pipe-data/BlueboxTemp/200600.jpg'
p1380
g3
(g4
(I0
tS'b'
tRp1381
(I1
(I2
tg7
I00
S'\xf6g\x05?\x140\xf5>'
tbtp1382
a(S'/data/ad6813/pipe-data/BlueboxTemp/200602.jpg'
p1383
g3
(g4
(I0
tS'b'
tRp1384
(I1
(I2
tg7
I00
S'\x00\xd5\xae>\x7f\x95(?'
tbtp1385
a(S'/data/ad6813/pipe-data/BlueboxTemp/200605.jpg'
p1386
g3
(g4
(I0
tS'b'
tRp1387
(I1
(I2
tg7
I00
S'\x91\x0c\n?\xdc\xe6\xeb>'
tbtp1388
a(S'/data/ad6813/pipe-data/BlueboxTemp/200735.jpg'
p1389
g3
(g4
(I0
tS'b'
tRp1390
(I1
(I2
tg7
I00
S'\t\x8a\xc9>\xfc:\x1b?'
tbtp1391
a(S'/data/ad6813/pipe-data/BlueboxTemp/200736.jpg'
p1392
g3
(g4
(I0
tS'b'
tRp1393
(I1
(I2
tg7
I00
S'\x90vf>]bF?'
tbtp1394
a(S'/data/ad6813/pipe-data/BlueboxTemp/200738.jpg'
p1395
g3
(g4
(I0
tS'b'
tRp1396
(I1
(I2
tg7
I00
S'\x8c\xcc2?\xe6f\x9a>'
tbtp1397
a(S'/data/ad6813/pipe-data/BlueboxTemp/200743.jpg'
p1398
g3
(g4
(I0
tS'b'
tRp1399
(I1
(I2
tg7
I00
S'\xa2\xb3\x0c?\xbf\x98\xe6>'
tbtp1400
a(S'/data/ad6813/pipe-data/BlueboxTemp/200744.jpg'
p1401
g3
(g4
(I0
tS'b'
tRp1402
(I1
(I2
tg7
I00
S'\xec\xfa\x8a>\x8a\x82:?'
tbtp1403
a(S'/data/ad6813/pipe-data/BlueboxTemp/200750.jpg'
p1404
g3
(g4
(I0
tS'b'
tRp1405
(I1
(I2
tg7
I00
S'X\xcdb?B\x95\xe9='
tbtp1406
a(S'/data/ad6813/pipe-data/BlueboxTemp/200767.jpg'
p1407
g3
(g4
(I0
tS'b'
tRp1408
(I1
(I2
tg7
I00
S'\xf0\x94\xdb>\x895\x12?'
tbtp1409
a(S'/data/ad6813/pipe-data/BlueboxTemp/200768.jpg'
p1410
g3
(g4
(I0
tS'b'
tRp1411
(I1
(I2
tg7
I00
S'\x9e\x820?\xc2\xfa\x9e>'
tbtp1412
a(S'/data/ad6813/pipe-data/BlueboxTemp/200782.jpg'
p1413
g3
(g4
(I0
tS'b'
tRp1414
(I1
(I2
tg7
I00
S'\xa2jT?vU.>'
tbtp1415
a(S'/data/ad6813/pipe-data/BlueboxTemp/200786.jpg'
p1416
g3
(g4
(I0
tS'b'
tRp1417
(I1
(I2
tg7
I00
S'\x17\xf2\x1f?\xd0\x1b\xc0>'
tbtp1418
a(S'/data/ad6813/pipe-data/BlueboxTemp/200787.jpg'
p1419
g3
(g4
(I0
tS'b'
tRp1420
(I1
(I2
tg7
I00
S'\x98!\xd6>4\xef\x14?'
tbtp1421
a(S'/data/ad6813/pipe-data/BlueboxTemp/200792.jpg'
p1422
g3
(g4
(I0
tS'b'
tRp1423
(I1
(I2
tg7
I00
S'i\xe5\r?-5\xe4>'
tbtp1424
a(S'/data/ad6813/pipe-data/BlueboxTemp/200793.jpg'
p1425
g3
(g4
(I0
tS'b'
tRp1426
(I1
(I2
tg7
I00
S'\xe0T\x9e>\x91\xd50?'
tbtp1427
a(S'/data/ad6813/pipe-data/BlueboxTemp/200795.jpg'
p1428
g3
(g4
(I0
tS'b'
tRp1429
(I1
(I2
tg7
I00
S'\xd1\x7f\x08?`\x00\xef>'
tbtp1430
a(S'/data/ad6813/pipe-data/BlueboxTemp/200796.jpg'
p1431
g3
(g4
(I0
tS'b'
tRp1432
(I1
(I2
tg7
I00
S'\x1b\xa5\xbf>s- ?'
tbtp1433
a(S'/data/ad6813/pipe-data/BlueboxTemp/200800.jpg'
p1434
g3
(g4
(I0
tS'b'
tRp1435
(I1
(I2
tg7
I00
S'\x01\xbd\x05?\xfd\x85\xf4>'
tbtp1436
a(S'/data/ad6813/pipe-data/BlueboxTemp/200804.jpg'
p1437
g3
(g4
(I0
tS'b'
tRp1438
(I1
(I2
tg7
I00
S'`\xc4H>\xe8\xceM?'
tbtp1439
a(S'/data/ad6813/pipe-data/BlueboxTemp/200806.jpg'
p1440
g3
(g4
(I0
tS'b'
tRp1441
(I1
(I2
tg7
I00
S'\xac\xa0\n?\xa9\xbe\xea>'
tbtp1442
a(S'/data/ad6813/pipe-data/BlueboxTemp/200812.jpg'
p1443
g3
(g4
(I0
tS'b'
tRp1444
(I1
(I2
tg7
I00
S'm\x02\xc8>\xca\xfe\x1b?'
tbtp1445
a(S'/data/ad6813/pipe-data/BlueboxTemp/200813.jpg'
p1446
g3
(g4
(I0
tS'b'
tRp1447
(I1
(I2
tg7
I00
S'\xe8G\xdb>\x0c\\\x12?'
tbtp1448
a(S'/data/ad6813/pipe-data/BlueboxTemp/200824.jpg'
p1449
g3
(g4
(I0
tS'b'
tRp1450
(I1
(I2
tg7
I00
S'\x82go?\xe7\xc3\x84='
tbtp1451
a(S'/data/ad6813/pipe-data/BlueboxTemp/200826.jpg'
p1452
g3
(g4
(I0
tS'b'
tRp1453
(I1
(I2
tg7
I00
S'\x1eY\xb2>q\xd3&?'
tbtp1454
a(S'/data/ad6813/pipe-data/BlueboxTemp/200829.jpg'
p1455
g3
(g4
(I0
tS'b'
tRp1456
(I1
(I2
tg7
I00
S"mq;?'\x1d\x89>"
tbtp1457
a(S'/data/ad6813/pipe-data/BlueboxTemp/200832.jpg'
p1458
g3
(g4
(I0
tS'b'
tRp1459
(I1
(I2
tg7
I00
S'q\x01@?>\xfa\x7f>'
tbtp1460
a(S'/data/ad6813/pipe-data/BlueboxTemp/200844.jpg'
p1461
g3
(g4
(I0
tS'b'
tRp1462
(I1
(I2
tg7
I00
S'\xe3\xb3G?s0a>'
tbtp1463
a(S'/data/ad6813/pipe-data/BlueboxTemp/200849.jpg'
p1464
g3
(g4
(I0
tS'b'
tRp1465
(I1
(I2
tg7
I00
S'$j\x11?\xb9+\xdd>'
tbtp1466
a(S'/data/ad6813/pipe-data/BlueboxTemp/200851.jpg'
p1467
g3
(g4
(I0
tS'b'
tRp1468
(I1
(I2
tg7
I00
S'4\xc7*?\x98q\xaa>'
tbtp1469
a(S'/data/ad6813/pipe-data/BlueboxTemp/200852.jpg'
p1470
g3
(g4
(I0
tS'b'
tRp1471
(I1
(I2
tg7
I00
S'\x90\x08[?\xc0\xdd\x13>'
tbtp1472
a(S'/data/ad6813/pipe-data/BlueboxTemp/200859.jpg'
p1473
g3
(g4
(I0
tS'b'
tRp1474
(I1
(I2
tg7
I00
S'^\xd8"?GO\xba>'
tbtp1475
a(S'/data/ad6813/pipe-data/BlueboxTemp/200862.jpg'
p1476
g3
(g4
(I0
tS'b'
tRp1477
(I1
(I2
tg7
I00
S'\xe1QC?z\xb8r>'
tbtp1478
a(S'/data/ad6813/pipe-data/BlueboxTemp/200863.jpg'
p1479
g3
(g4
(I0
tS'b'
tRp1480
(I1
(I2
tg7
I00
S'm\xa5\xdc>I\xad\x11?'
tbtp1481
a(S'/data/ad6813/pipe-data/BlueboxTemp/200867.jpg'
p1482
g3
(g4
(I0
tS'b'
tRp1483
(I1
(I2
tg7
I00
S'R\xd4(?[W\xae>'
tbtp1484
a(S'/data/ad6813/pipe-data/BlueboxTemp/200876.jpg'
p1485
g3
(g4
(I0
tS'b'
tRp1486
(I1
(I2
tg7
I00
S'\xdb)@?\x8fX\x7f>'
tbtp1487
a(S'/data/ad6813/pipe-data/BlueboxTemp/200879.jpg'
p1488
g3
(g4
(I0
tS'b'
tRp1489
(I1
(I2
tg7
I00
S'd&\xfe>\xcd\xec\x00?'
tbtp1490
a(S'/data/ad6813/pipe-data/BlueboxTemp/200881.jpg'
p1491
g3
(g4
(I0
tS'b'
tRp1492
(I1
(I2
tg7
I00
S'\x1a\x9c-?\xcb\xc7\xa4>'
tbtp1493
a(S'/data/ad6813/pipe-data/BlueboxTemp/200915.jpg'
p1494
g3
(g4
(I0
tS'b'
tRp1495
(I1
(I2
tg7
I00
S'A\xd6\r?\x7fS\xe4>'
tbtp1496
a(S'/data/ad6813/pipe-data/BlueboxTemp/200918.jpg'
p1497
g3
(g4
(I0
tS'b'
tRp1498
(I1
(I2
tg7
I00
S'\xf80\x1b?\x0f\x9e\xc9>'
tbtp1499
a(S'/data/ad6813/pipe-data/BlueboxTemp/200922.jpg'
p1500
g3
(g4
(I0
tS'b'
tRp1501
(I1
(I2
tg7
I00
S'\x80I(?\x01m\xaf>'
tbtp1502
a(S'/data/ad6813/pipe-data/BlueboxTemp/200925.jpg'
p1503
g3
(g4
(I0
tS'b'
tRp1504
(I1
(I2
tg7
I00
S'\xdf\x927?B\xda\x90>'
tbtp1505
a(S'/data/ad6813/pipe-data/BlueboxTemp/200926.jpg'
p1506
g3
(g4
(I0
tS'b'
tRp1507
(I1
(I2
tg7
I00
S'\x06Ob?\xd2\x87\xed='
tbtp1508
a(S'/data/ad6813/pipe-data/BlueboxTemp/200929.jpg'
p1509
g3
(g4
(I0
tS'b'
tRp1510
(I1
(I2
tg7
I00
S'2\xd5o?nV\x81='
tbtp1511
a(S'/data/ad6813/pipe-data/BlueboxTemp/200938.jpg'
p1512
g3
(g4
(I0
tS'b'
tRp1513
(I1
(I2
tg7
I00
S'\xa9\xce\t?\xb0b\xec>'
tbtp1514
a(S'/data/ad6813/pipe-data/BlueboxTemp/200942.jpg'
p1515
g3
(g4
(I0
tS'b'
tRp1516
(I1
(I2
tg7
I00
S'FwF?\xe7"f>'
tbtp1517
a(S'/data/ad6813/pipe-data/BlueboxTemp/200943.jpg'
p1518
g3
(g4
(I0
tS'b'
tRp1519
(I1
(I2
tg7
I00
S'\xf8\xae9?\x0f\xa2\x8c>'
tbtp1520
a(S'/data/ad6813/pipe-data/BlueboxTemp/200947.jpg'
p1521
g3
(g4
(I0
tS'b'
tRp1522
(I1
(I2
tg7
I00
S'=cE?\nsj>'
tbtp1523
a(S'/data/ad6813/pipe-data/BlueboxTemp/200948.jpg'
p1524
g3
(g4
(I0
tS'b'
tRp1525
(I1
(I2
tg7
I00
S'S\xbb\xc4>W\xa2\x1d?'
tbtp1526
a(S'/data/ad6813/pipe-data/BlueboxTemp/200949.jpg'
p1527
g3
(g4
(I0
tS'b'
tRp1528
(I1
(I2
tg7
I00
S'\xda\xc8\x04?Jn\xf6>'
tbtp1529
a(S'/data/ad6813/pipe-data/BlueboxTemp/200952.jpg'
p1530
g3
(g4
(I0
tS'b'
tRp1531
(I1
(I2
tg7
I00
S'\xa6\xac<?\xb4\xa6\x86>'
tbtp1532
a(S'/data/ad6813/pipe-data/BlueboxTemp/200953.jpg'
p1533
g3
(g4
(I0
tS'b'
tRp1534
(I1
(I2
tg7
I00
S'L\x86T?\xd0\xe6->'
tbtp1535
a(S'/data/ad6813/pipe-data/BlueboxTemp/200958.jpg'
p1536
g3
(g4
(I0
tS'b'
tRp1537
(I1
(I2
tg7
I00
S'*\xcd8?\xace\x8e>'
tbtp1538
a(S'/data/ad6813/pipe-data/BlueboxTemp/200960.jpg'
p1539
g3
(g4
(I0
tS'b'
tRp1540
(I1
(I2
tg7
I00
S'\x96#\xdd>5n\x11?'
tbtp1541
a(S'/data/ad6813/pipe-data/BlueboxTemp/200964.jpg'
p1542
g3
(g4
(I0
tS'b'
tRp1543
(I1
(I2
tg7
I00
S'\xd3\xa9\xbf>\x15+ ?'
tbtp1544
a(S'/data/ad6813/pipe-data/BlueboxTemp/200974.jpg'
p1545
g3
(g4
(I0
tS'b'
tRp1546
(I1
(I2
tg7
I00
S'")\x16?\xbb\xad\xd3>'
tbtp1547
a(S'/data/ad6813/pipe-data/BlueboxTemp/200981.jpg'
p1548
g3
(g4
(I0
tS'b'
tRp1549
(I1
(I2
tg7
I00
S'%\x94\x1e?\xb6\xd7\xc2>'
tbtp1550
a(S'/data/ad6813/pipe-data/BlueboxTemp/200988.jpg'
p1551
g3
(g4
(I0
tS'b'
tRp1552
(I1
(I2
tg7
I00
S'\xad%\x02?\xa9\xb4\xfb>'
tbtp1553
a(S'/data/ad6813/pipe-data/BlueboxTemp/200989.jpg'
p1554
g3
(g4
(I0
tS'b'
tRp1555
(I1
(I2
tg7
I00
S'R\xd2R?\xbc\xb64>'
tbtp1556
a(S'/data/ad6813/pipe-data/BlueboxTemp/200995.jpg'
p1557
g3
(g4
(I0
tS'b'
tRp1558
(I1
(I2
tg7
I00
S'\xfbV\xef>\x82T\x08?'
tbtp1559
a(S'/data/ad6813/pipe-data/BlueboxTemp/200996.jpg'
p1560
g3
(g4
(I0
tS'b'
tRp1561
(I1
(I2
tg7
I00
S'$\t\xce>m\xfb\x18?'
tbtp1562
a(S'/data/ad6813/pipe-data/BlueboxTemp/201008.jpg'
p1563
g3
(g4
(I0
tS'b'
tRp1564
(I1
(I2
tg7
I00
S'f\xc5\x1c?2u\xc6>'
tbtp1565
a(S'/data/ad6813/pipe-data/BlueboxTemp/201015.jpg'
p1566
g3
(g4
(I0
tS'b'
tRp1567
(I1
(I2
tg7
I00
S'\x8c{\x1c?\xea\x08\xc7>'
tbtp1568
a(S'/data/ad6813/pipe-data/BlueboxTemp/201016.jpg'
p1569
g3
(g4
(I0
tS'b'
tRp1570
(I1
(I2
tg7
I00
S'\xef\x8c\x16?#\xe6\xd2>'
tbtp1571
a(S'/data/ad6813/pipe-data/BlueboxTemp/201017.jpg'
p1572
g3
(g4
(I0
tS'b'
tRp1573
(I1
(I2
tg7
I00
S'\xc0x1?\x81\x0e\x9d>'
tbtp1574
a(S'/data/ad6813/pipe-data/BlueboxTemp/201024.jpg'
p1575
g3
(g4
(I0
tS'b'
tRp1576
(I1
(I2
tg7
I00
S'N\xa30?d\xb9\x9e>'
tbtp1577
a(S'/data/ad6813/pipe-data/BlueboxTemp/201027.jpg'
p1578
g3
(g4
(I0
tS'b'
tRp1579
(I1
(I2
tg7
I00
S'\x12\xf6\x12?\xdb\x13\xda>'
tbtp1580
a(S'/data/ad6813/pipe-data/BlueboxTemp/201028.jpg'
p1581
g3
(g4
(I0
tS'b'
tRp1582
(I1
(I2
tg7
I00
S'0\x9b/?\x9f\xc9\xa0>'
tbtp1583
a(S'/data/ad6813/pipe-data/BlueboxTemp/201043.jpg'
p1584
g3
(g4
(I0
tS'b'
tRp1585
(I1
(I2
tg7
I00
S',G4?\xa9q\x97>'
tbtp1586
a(S'/data/ad6813/pipe-data/BlueboxTemp/201051.jpg'
p1587
g3
(g4
(I0
tS'b'
tRp1588
(I1
(I2
tg7
I00
S'\x89g\xba>;\xcc"?'
tbtp1589
a(S'/data/ad6813/pipe-data/BlueboxTemp/201053.jpg'
p1590
g3
(g4
(I0
tS'b'
tRp1591
(I1
(I2
tg7
I00
S'\t<&?\xec\x87\xb3>'
tbtp1592
a(S'/data/ad6813/pipe-data/BlueboxTemp/201057.jpg'
p1593
g3
(g4
(I0
tS'b'
tRp1594
(I1
(I2
tg7
I00
S'\xb3\x0fC?0\xc1s>'
tbtp1595
a(S'/data/ad6813/pipe-data/BlueboxTemp/201059.jpg'
p1596
g3
(g4
(I0
tS'b'
tRp1597
(I1
(I2
tg7
I00
S'\x08\xf8Y?\xe1\x1f\x18>'
tbtp1598
a(S'/data/ad6813/pipe-data/BlueboxTemp/201063.jpg'
p1599
g3
(g4
(I0
tS'b'
tRp1600
(I1
(I2
tg7
I00
S'q}\x04?\x1c\x05\xf7>'
tbtp1601
a(S'/data/ad6813/pipe-data/BlueboxTemp/201066.jpg'
p1602
g3
(g4
(I0
tS'b'
tRp1603
(I1
(I2
tg7
I00
S'w\xaa>?\x13\xab\x82>'
tbtp1604
a(S'/data/ad6813/pipe-data/BlueboxTemp/201070.jpg'
p1605
g3
(g4
(I0
tS'b'
tRp1606
(I1
(I2
tg7
I00
S'\xech\xd4>\x8b\xcb\x15?'
tbtp1607
a(S'/data/ad6813/pipe-data/BlueboxTemp/201071.jpg'
p1608
g3
(g4
(I0
tS'b'
tRp1609
(I1
(I2
tg7
I00
S'\xd7O%?R`\xb5>'
tbtp1610
a(S'/data/ad6813/pipe-data/BlueboxTemp/201074.jpg'
p1611
g3
(g4
(I0
tS'b'
tRp1612
(I1
(I2
tg7
I00
S'\xaf\xbb\xd0>)\xa2\x17?'
tbtp1613
a(S'/data/ad6813/pipe-data/BlueboxTemp/201075.jpg'
p1614
g3
(g4
(I0
tS'b'
tRp1615
(I1
(I2
tg7
I00
S'\xd9\xa2 ?O\xba\xbe>'
tbtp1616
a(S'/data/ad6813/pipe-data/BlueboxTemp/201079.jpg'
p1617
g3
(g4
(I0
tS'b'
tRp1618
(I1
(I2
tg7
I00
S'\xd7(\x93>\x94k6?'
tbtp1619
a(S'/data/ad6813/pipe-data/BlueboxTemp/201080.jpg'
p1620
g3
(g4
(I0
tS'b'
tRp1621
(I1
(I2
tg7
I00
S'.\xc2 ?\xa5{\xbe>'
tbtp1622
a(S'/data/ad6813/pipe-data/BlueboxTemp/201083.jpg'
p1623
g3
(g4
(I0
tS'b'
tRp1624
(I1
(I2
tg7
I00
S'\xe6\xf1\xfe>\r\x87\x00?'
tbtp1625
a(S'/data/ad6813/pipe-data/BlueboxTemp/201090.jpg'
p1626
g3
(g4
(I0
tS'b'
tRp1627
(I1
(I2
tg7
I00
S'q\xe0Y??~\x18>'
tbtp1628
a(S'/data/ad6813/pipe-data/BlueboxTemp/201091.jpg'
p1629
g3
(g4
(I0
tS'b'
tRp1630
(I1
(I2
tg7
I00
S'!Y\x94>p\xd35?'
tbtp1631
a(S'/data/ad6813/pipe-data/BlueboxTemp/201094.jpg'
p1632
g3
(g4
(I0
tS'b'
tRp1633
(I1
(I2
tg7
I00
S'\xe7t#?2\x16\xb9>'
tbtp1634
a(S'/data/ad6813/pipe-data/BlueboxTemp/201096.jpg'
p1635
g3
(g4
(I0
tS'b'
tRp1636
(I1
(I2
tg7
I00
S'\xe0\x864??\xf2\x96>'
tbtp1637
a(S'/data/ad6813/pipe-data/BlueboxTemp/201118.jpg'
p1638
g3
(g4
(I0
tS'b'
tRp1639
(I1
(I2
tg7
I00
S'\xbb\x84K?\x15\xedQ>'
tbtp1640
a(S'/data/ad6813/pipe-data/BlueboxTemp/201124.jpg'
p1641
g3
(g4
(I0
tS'b'
tRp1642
(I1
(I2
tg7
I00
S'h\xa2F?\\ve>'
tbtp1643
a(S'/data/ad6813/pipe-data/BlueboxTemp/201127.jpg'
p1644
g3
(g4
(I0
tS'b'
tRp1645
(I1
(I2
tg7
I00
S'0\xc2p?\x05\xdds='
tbtp1646
a(S'/data/ad6813/pipe-data/BlueboxTemp/201145.jpg'
p1647
g3
(g4
(I0
tS'b'
tRp1648
(I1
(I2
tg7
I00
S'\xa2\xbf\xf2>0\xa0\x06?'
tbtp1649
a(S'/data/ad6813/pipe-data/BlueboxTemp/201146.jpg'
p1650
g3
(g4
(I0
tS'b'
tRp1651
(I1
(I2
tg7
I00
S'c\x88\x01?9\xef\xfc>'
tbtp1652
a(S'/data/ad6813/pipe-data/BlueboxTemp/201150.jpg'
p1653
g3
(g4
(I0
tS'b'
tRp1654
(I1
(I2
tg7
I00
S'\xfc\xb5\xf1>\x02%\x07?'
tbtp1655
a(S'/data/ad6813/pipe-data/BlueboxTemp/201157.jpg'
p1656
g3
(g4
(I0
tS'b'
tRp1657
(I1
(I2
tg7
I00
S'\x9d6\x1c?\xc8\x92\xc7>'
tbtp1658
a(S'/data/ad6813/pipe-data/BlueboxTemp/201158.jpg'
p1659
g3
(g4
(I0
tS'b'
tRp1660
(I1
(I2
tg7
I00
S'c\xd8\x16?:O\xd2>'
tbtp1661
a(S'/data/ad6813/pipe-data/BlueboxTemp/201159.jpg'
p1662
g3
(g4
(I0
tS'b'
tRp1663
(I1
(I2
tg7
I00
S'\xdc\xd6\xe6>\x92\x94\x0c?'
tbtp1664
a(S'/data/ad6813/pipe-data/BlueboxTemp/201160.jpg'
p1665
g3
(g4
(I0
tS'b'
tRp1666
(I1
(I2
tg7
I00
S'}\xf40?\x06\x17\x9e>'
tbtp1667
a(S'/data/ad6813/pipe-data/BlueboxTemp/201171.jpg'
p1668
g3
(g4
(I0
tS'b'
tRp1669
(I1
(I2
tg7
I00
S'e\x9d\x14?5\xc5\xd6>'
tbtp1670
a(S'/data/ad6813/pipe-data/BlueboxTemp/201174.jpg'
p1671
g3
(g4
(I0
tS'b'
tRp1672
(I1
(I2
tg7
I00
S'7f\xe0>\xe4\xcc\x0f?'
tbtp1673
a(S'/data/ad6813/pipe-data/BlueboxTemp/201188.jpg'
p1674
g3
(g4
(I0
tS'b'
tRp1675
(I1
(I2
tg7
I00
S'\x9e{\x12?\xc1\x08\xdb>'
tbtp1676
a(S'/data/ad6813/pipe-data/BlueboxTemp/201189.jpg'
p1677
g3
(g4
(I0
tS'b'
tRp1678
(I1
(I2
tg7
I00
S'y\xfa8?\x0e\x0b\x8e>'
tbtp1679
a(S'/data/ad6813/pipe-data/BlueboxTemp/201193.jpg'
p1680
g3
(g4
(I0
tS'b'
tRp1681
(I1
(I2
tg7
I00
S'\xec\xf2\xd0>\x8a\x86\x17?'
tbtp1682
a(S'/data/ad6813/pipe-data/BlueboxTemp/201202.jpg'
p1683
g3
(g4
(I0
tS'b'
tRp1684
(I1
(I2
tg7
I00
S'\x8a<]?\xd8\r\x0b>'
tbtp1685
a(S'/data/ad6813/pipe-data/BlueboxTemp/201225.jpg'
p1686
g3
(g4
(I0
tS'b'
tRp1687
(I1
(I2
tg7
I00
S'<\xc4\xeb>\xe2\x1d\n?'
tbtp1688
a(S'/data/ad6813/pipe-data/BlueboxTemp/201233.jpg'
p1689
g3
(g4
(I0
tS'b'
tRp1690
(I1
(I2
tg7
I00
S'\xa3\xbf,?\xb8\x80\xa6>'
tbtp1691
a(S'/data/ad6813/pipe-data/BlueboxTemp/201237.jpg'
p1692
g3
(g4
(I0
tS'b'
tRp1693
(I1
(I2
tg7
I00
S'\x0e\n&?\xe4\xeb\xb3>'
tbtp1694
a(S'/data/ad6813/pipe-data/BlueboxTemp/201256.jpg'
p1695
g3
(g4
(I0
tS'b'
tRp1696
(I1
(I2
tg7
I00
S'#\xdf\x97>n\x104?'
tbtp1697
a(S'/data/ad6813/pipe-data/BlueboxTemp/201258.jpg'
p1698
g3
(g4
(I0
tS'b'
tRp1699
(I1
(I2
tg7
I00
S']\xa28?H\xbb\x8e>'
tbtp1700
a(S'/data/ad6813/pipe-data/BlueboxTemp/201278.jpg'
p1701
g3
(g4
(I0
tS'b'
tRp1702
(I1
(I2
tg7
I00
S'\x1b\xce\x1e?\xcbc\xc2>'
tbtp1703
a(S'/data/ad6813/pipe-data/BlueboxTemp/201279.jpg'
p1704
g3
(g4
(I0
tS'b'
tRp1705
(I1
(I2
tg7
I00
S'\x9d\x07+?\xc5\xf0\xa9>'
tbtp1706
a(S'/data/ad6813/pipe-data/BlueboxTemp/201292.jpg'
p1707
g3
(g4
(I0
tS'b'
tRp1708
(I1
(I2
tg7
I00
S'\x7f\xb2\xda>\xc0\xa6\x12?'
tbtp1709
a(S'/data/ad6813/pipe-data/BlueboxTemp/201297.jpg'
p1710
g3
(g4
(I0
tS'b'
tRp1711
(I1
(I2
tg7
I00
S'\x8dn\x13?\xe5"\xd9>'
tbtp1712
a(S'/data/ad6813/pipe-data/BlueboxTemp/201305.jpg'
p1713
g3
(g4
(I0
tS'b'
tRp1714
(I1
(I2
tg7
I00
S'\xd2-0?\\\xa4\x9f>'
tbtp1715
a(S'/data/ad6813/pipe-data/BlueboxTemp/201314.jpg'
p1716
g3
(g4
(I0
tS'b'
tRp1717
(I1
(I2
tg7
I00
S'z_(?\x0cA\xaf>'
tbtp1718
a(S'/data/ad6813/pipe-data/BlueboxTemp/201329.jpg'
p1719
g3
(g4
(I0
tS'b'
tRp1720
(I1
(I2
tg7
I00
S'\x8d$$?\xe3\xb6\xb7>'
tbtp1721
a(S'/data/ad6813/pipe-data/BlueboxTemp/201332.jpg'
p1722
g3
(g4
(I0
tS'b'
tRp1723
(I1
(I2
tg7
I00
S'C\x8f,?|\xe1\xa6>'
tbtp1724
a(S'/data/ad6813/pipe-data/BlueboxTemp/201335.jpg'
p1725
g3
(g4
(I0
tS'b'
tRp1726
(I1
(I2
tg7
I00
S'\xf3TX?9\xac\x1e>'
tbtp1727
a(S'/data/ad6813/pipe-data/BlueboxTemp/201338.jpg'
p1728
g3
(g4
(I0
tS'b'
tRp1729
(I1
(I2
tg7
I00
S'*\xb0\xec>\xeb\xa7\t?'
tbtp1730
a(S'/data/ad6813/pipe-data/BlueboxTemp/201342.jpg'
p1731
g3
(g4
(I0
tS'b'
tRp1732
(I1
(I2
tg7
I00
S'\xa3\xa0\x12?\xb9\xbe\xda>'
tbtp1733
a(S'/data/ad6813/pipe-data/BlueboxTemp/201346.jpg'
p1734
g3
(g4
(I0
tS'b'
tRp1735
(I1
(I2
tg7
I00
S'2o\x12?\x9c!\xdb>'
tbtp1736
a(S'/data/ad6813/pipe-data/BlueboxTemp/201349.jpg'
p1737
g3
(g4
(I0
tS'b'
tRp1738
(I1
(I2
tg7
I00
S"}E'>\xa0.V?"
tbtp1739
a(S'/data/ad6813/pipe-data/BlueboxTemp/201351.jpg'
p1740
g3
(g4
(I0
tS'b'
tRp1741
(I1
(I2
tg7
I00
S'KJ\xfc>\xda\xda\x01?'
tbtp1742
a(S'/data/ad6813/pipe-data/BlueboxTemp/201355.jpg'
p1743
g3
(g4
(I0
tS'b'
tRp1744
(I1
(I2
tg7
I00
S']_/?EA\xa1>'
tbtp1745
a(S'/data/ad6813/pipe-data/BlueboxTemp/201357.jpg'
p1746
g3
(g4
(I0
tS'b'
tRp1747
(I1
(I2
tg7
I00
S"e\xfc'?6\x07\xb0>"
tbtp1748
a(S'/data/ad6813/pipe-data/BlueboxTemp/201358.jpg'
p1749
g3
(g4
(I0
tS'b'
tRp1750
(I1
(I2
tg7
I00
S'\x7f\xbcE?\x05\x0ei>'
tbtp1751
a(S'/data/ad6813/pipe-data/BlueboxTemp/201359.jpg'
p1752
g3
(g4
(I0
tS'b'
tRp1753
(I1
(I2
tg7
I00
S'\xb1\x1b\xf6>(\xf2\x04?'
tbtp1754
a(S'/data/ad6813/pipe-data/BlueboxTemp/201361.jpg'
p1755
g3
(g4
(I0
tS'b'
tRp1756
(I1
(I2
tg7
I00
S'\xe0\xd0\x14?@^\xd6>'
tbtp1757
a(S'/data/ad6813/pipe-data/BlueboxTemp/201371.jpg'
p1758
g3
(g4
(I0
tS'b'
tRp1759
(I1
(I2
tg7
I00
S'+h\x14?\xab/\xd7>'
tbtp1760
a(S'/data/ad6813/pipe-data/BlueboxTemp/201372.jpg'
p1761
g3
(g4
(I0
tS'b'
tRp1762
(I1
(I2
tg7
I00
S'\x8fk\xe0>8\xca\x0f?'
tbtp1763
a(S'/data/ad6813/pipe-data/BlueboxTemp/201384.jpg'
p1764
g3
(g4
(I0
tS'b'
tRp1765
(I1
(I2
tg7
I00
S'\x16\x7f0?\xd4\x01\x9f>'
tbtp1766
a(S'/data/ad6813/pipe-data/BlueboxTemp/201385.jpg'
p1767
g3
(g4
(I0
tS'b'
tRp1768
(I1
(I2
tg7
I00
S'\r\xa4\x10?\xe8\xb7\xde>'
tbtp1769
a(S'/data/ad6813/pipe-data/BlueboxTemp/201388.jpg'
p1770
g3
(g4
(I0
tS'b'
tRp1771
(I1
(I2
tg7
I00
S'\t:6?\xee\x8b\x93>'
tbtp1772
a(S'/data/ad6813/pipe-data/BlueboxTemp/201394.jpg'
p1773
g3
(g4
(I0
tS'b'
tRp1774
(I1
(I2
tg7
I00
S'W/k?D\x85\xa6='
tbtp1775
a(S'/data/ad6813/pipe-data/BlueboxTemp/201398.jpg'
p1776
g3
(g4
(I0
tS'b'
tRp1777
(I1
(I2
tg7
I00
S'\xfc\x16P?\r\xa4?>'
tbtp1778
a(S'/data/ad6813/pipe-data/BlueboxTemp/201403.jpg'
p1779
g3
(g4
(I0
tS'b'
tRp1780
(I1
(I2
tg7
I00
S'\xad"N?LuG>'
tbtp1781
a(S'/data/ad6813/pipe-data/BlueboxTemp/201415.jpg'
p1782
g3
(g4
(I0
tS'b'
tRp1783
(I1
(I2
tg7
I00
S'@\x13\x07?\x80\xd9\xf1>'
tbtp1784
a(S'/data/ad6813/pipe-data/BlueboxTemp/201427.jpg'
p1785
g3
(g4
(I0
tS'b'
tRp1786
(I1
(I2
tg7
I00
S'w\x07\x0e?\x11\xf1\xe3>'
tbtp1787
a(S'/data/ad6813/pipe-data/BlueboxTemp/201434.jpg'
p1788
g3
(g4
(I0
tS'b'
tRp1789
(I1
(I2
tg7
I00
S'\xb9\x07d?3\xc2\xdf='
tbtp1790
a(S'/data/ad6813/pipe-data/BlueboxTemp/201437.jpg'
p1791
g3
(g4
(I0
tS'b'
tRp1792
(I1
(I2
tg7
I00
S'\xdd\xac*?D\xa6\xaa>'
tbtp1793
a(S'/data/ad6813/pipe-data/BlueboxTemp/201440.jpg'
p1794
g3
(g4
(I0
tS'b'
tRp1795
(I1
(I2
tg7
I00
S'\xe23\x00?;\x98\xff>'
tbtp1796
a(S'/data/ad6813/pipe-data/BlueboxTemp/201442.jpg'
p1797
g3
(g4
(I0
tS'b'
tRp1798
(I1
(I2
tg7
I00
S'\x9c\xe6\x1f?\xc82\xc0>'
tbtp1799
a(S'/data/ad6813/pipe-data/BlueboxTemp/201443.jpg'
p1800
g3
(g4
(I0
tS'b'
tRp1801
(I1
(I2
tg7
I00
S'\x07d:?\xf17\x8b>'
tbtp1802
a(S'/data/ad6813/pipe-data/BlueboxTemp/201445.jpg'
p1803
g3
(g4
(I0
tS'b'
tRp1804
(I1
(I2
tg7
I00
S'Y\x00,?M\xff\xa7>'
tbtp1805
a(S'/data/ad6813/pipe-data/BlueboxTemp/201446.jpg'
p1806
g3
(g4
(I0
tS'b'
tRp1807
(I1
(I2
tg7
I00
S'Ih)?m/\xad>'
tbtp1808
a(S'/data/ad6813/pipe-data/BlueboxTemp/201449.jpg'
p1809
g3
(g4
(I0
tS'b'
tRp1810
(I1
(I2
tg7
I00
S'\xa4\xc3??\xb9x\x80>'
tbtp1811
a(S'/data/ad6813/pipe-data/BlueboxTemp/201455.jpg'
p1812
g3
(g4
(I0
tS'b'
tRp1813
(I1
(I2
tg7
I00
S'\xf8\x9fG? \x80a>'
tbtp1814
a(S'/data/ad6813/pipe-data/BlueboxTemp/201458.jpg'
p1815
g3
(g4
(I0
tS'b'
tRp1816
(I1
(I2
tg7
I00
S'3\xf08?\x9b\x1f\x8e>'
tbtp1817
a(S'/data/ad6813/pipe-data/BlueboxTemp/201463.jpg'
p1818
g3
(g4
(I0
tS'b'
tRp1819
(I1
(I2
tg7
I00
S'\xad\x14\x19?\xa6\xd6\xcd>'
tbtp1820
a(S'/data/ad6813/pipe-data/BlueboxTemp/201466.jpg'
p1821
g3
(g4
(I0
tS'b'
tRp1822
(I1
(I2
tg7
I00
S'\xaaK\x10?\xach\xdf>'
tbtp1823
a(S'/data/ad6813/pipe-data/BlueboxTemp/201470.jpg'
p1824
g3
(g4
(I0
tS'b'
tRp1825
(I1
(I2
tg7
I00
S'\x00\x7f\xd6>\x81\xc0\x14?'
tbtp1826
a(S'/data/ad6813/pipe-data/BlueboxTemp/201488.jpg'
p1827
g3
(g4
(I0
tS'b'
tRp1828
(I1
(I2
tg7
I00
S'z\xaa$?\x0c\xab\xb6>'
tbtp1829
a(S'/data/ad6813/pipe-data/BlueboxTemp/201504.jpg'
p1830
g3
(g4
(I0
tS'b'
tRp1831
(I1
(I2
tg7
I00
S'\xd2vT?\xb6$.>'
tbtp1832
a(S'/data/ad6813/pipe-data/BlueboxTemp/201508.jpg'
p1833
g3
(g4
(I0
tS'b'
tRp1834
(I1
(I2
tg7
I00
S'\xe2\xdcc?\xf2\x18\xe1='
tbtp1835
a(S'/data/ad6813/pipe-data/BlueboxTemp/201531.jpg'
p1836
g3
(g4
(I0
tS'b'
tRp1837
(I1
(I2
tg7
I00
S'\x8aF\x8d>\xbb\\9?'
tbtp1838
a(S'/data/ad6813/pipe-data/BlueboxTemp/201534.jpg'
p1839
g3
(g4
(I0
tS'b'
tRp1840
(I1
(I2
tg7
I00
S'\xddL\xe8>\x91\xd9\x0b?'
tbtp1841
a(S'/data/ad6813/pipe-data/BlueboxTemp/201546.jpg'
p1842
g3
(g4
(I0
tS'b'
tRp1843
(I1
(I2
tg7
I00
S'3\x1b\x8e>f\xf28?'
tbtp1844
a(S'/data/ad6813/pipe-data/BlueboxTemp/201548.jpg'
p1845
g3
(g4
(I0
tS'b'
tRp1846
(I1
(I2
tg7
I00
S'\x8f!\xf7>9o\x04?'
tbtp1847
a(S'/data/ad6813/pipe-data/BlueboxTemp/201554.jpg'
p1848
g3
(g4
(I0
tS'b'
tRp1849
(I1
(I2
tg7
I00
S"\x91R\xb1>\xb7V'?"
tbtp1850
a(S'/data/ad6813/pipe-data/BlueboxTemp/201556.jpg'
p1851
g3
(g4
(I0
tS'b'
tRp1852
(I1
(I2
tg7
I00
S'gHh>\xe6\xedE?'
tbtp1853
a(S'/data/ad6813/pipe-data/BlueboxTemp/201560.jpg'
p1854
g3
(g4
(I0
tS'b'
tRp1855
(I1
(I2
tg7
I00
S'h\xd4\x7f>\xe5\n@?'
tbtp1856
a(S'/data/ad6813/pipe-data/BlueboxTemp/201575.jpg'
p1857
g3
(g4
(I0
tS'b'
tRp1858
(I1
(I2
tg7
I00
S'\xcd\x14A?\xcb\xac{>'
tbtp1859
a(S'/data/ad6813/pipe-data/BlueboxTemp/201584.jpg'
p1860
g3
(g4
(I0
tS'b'
tRp1861
(I1
(I2
tg7
I00
S'6Lc?I\x9e\xe5='
tbtp1862
a(S'/data/ad6813/pipe-data/BlueboxTemp/201590.jpg'
p1863
g3
(g4
(I0
tS'b'
tRp1864
(I1
(I2
tg7
I00
S'\x8e\xfd6?\xe5\x04\x92>'
tbtp1865
a(S'/data/ad6813/pipe-data/BlueboxTemp/201595.jpg'
p1866
g3
(g4
(I0
tS'b'
tRp1867
(I1
(I2
tg7
I00
S'\xce\xa3\x00?g\xb8\xfe>'
tbtp1868
a(S'/data/ad6813/pipe-data/BlueboxTemp/201608.jpg'
p1869
g3
(g4
(I0
tS'b'
tRp1870
(I1
(I2
tg7
I00
S'\x97\rj?H\x93\xaf='
tbtp1871
a(S'/data/ad6813/pipe-data/BlueboxTemp/201609.jpg'
p1872
g3
(g4
(I0
tS'b'
tRp1873
(I1
(I2
tg7
I00
S'L\x1a\\?\xcf\x96\x0f>'
tbtp1874
a(S'/data/ad6813/pipe-data/BlueboxTemp/201621.jpg'
p1875
g3
(g4
(I0
tS'b'
tRp1876
(I1
(I2
tg7
I00
S'CLc?\xf0\x9d\xe5='
tbtp1877
a(S'/data/ad6813/pipe-data/BlueboxTemp/201624.jpg'
p1878
g3
(g4
(I0
tS'b'
tRp1879
(I1
(I2
tg7
I00
S'\xaa\xb2\xd9>\xaa&\x13?'
tbtp1880
a(S'/data/ad6813/pipe-data/BlueboxTemp/201651.jpg'
p1881
g3
(g4
(I0
tS'b'
tRp1882
(I1
(I2
tg7
I00
S'[|U?\x8f\x0e*>'
tbtp1883
a(S'/data/ad6813/pipe-data/BlueboxTemp/201654.jpg'
p1884
g3
(g4
(I0
tS'b'
tRp1885
(I1
(I2
tg7
I00
S'\x12\xd3c?yg\xe1='
tbtp1886
a(S'/data/ad6813/pipe-data/BlueboxTemp/201655.jpg'
p1887
g3
(g4
(I0
tS'b'
tRp1888
(I1
(I2
tg7
I00
S'\xc7\xedb?\xc5\x91\xe8='
tbtp1889
a(S'/data/ad6813/pipe-data/BlueboxTemp/201676.jpg'
p1890
g3
(g4
(I0
tS'b'
tRp1891
(I1
(I2
tg7
I00
S'\x02\x90\x0f?\xfb\xdf\xe0>'
tbtp1892
a(S'/data/ad6813/pipe-data/BlueboxTemp/201677.jpg'
p1893
g3
(g4
(I0
tS'b'
tRp1894
(I1
(I2
tg7
I00
S'X\x99B?\x9f\x9au>'
tbtp1895
a(S'/data/ad6813/pipe-data/BlueboxTemp/201691.jpg'
p1896
g3
(g4
(I0
tS'b'
tRp1897
(I1
(I2
tg7
I00
S'\x07p\xf9>\xfeG\x03?'
tbtp1898
a(S'/data/ad6813/pipe-data/BlueboxTemp/201697.jpg'
p1899
g3
(g4
(I0
tS'b'
tRp1900
(I1
(I2
tg7
I00
S'<sY?\x113\x1a>'
tbtp1901
a(S'/data/ad6813/pipe-data/BlueboxTemp/201702.jpg'
p1902
g3
(g4
(I0
tS'b'
tRp1903
(I1
(I2
tg7
I00
S'\xd0@@?\xbf\xfc~>'
tbtp1904
a(S'/data/ad6813/pipe-data/BlueboxTemp/201718.jpg'
p1905
g3
(g4
(I0
tS'b'
tRp1906
(I1
(I2
tg7
I00
S'@\x8ci?\x03\x9e\xb3='
tbtp1907
a(S'/data/ad6813/pipe-data/BlueboxTemp/201737.jpg'
p1908
g3
(g4
(I0
tS'b'
tRp1909
(I1
(I2
tg7
I00
S'\xf7\x16\x1e?\x13\xd2\xc3>'
tbtp1910
a(S'/data/ad6813/pipe-data/BlueboxTemp/201741.jpg'
p1911
g3
(g4
(I0
tS'b'
tRp1912
(I1
(I2
tg7
I00
S'\xffK\xe4>\x01\xda\r?'
tbtp1913
a(S'/data/ad6813/pipe-data/BlueboxTemp/201742.jpg'
p1914
g3
(g4
(I0
tS'b'
tRp1915
(I1
(I2
tg7
I00
S'\xb1\xb6\xd7>\xa7$\x14?'
tbtp1916
a(S'/data/ad6813/pipe-data/BlueboxTemp/201765.jpg'
p1917
g3
(g4
(I0
tS'b'
tRp1918
(I1
(I2
tg7
I00
S'\xff\x05\xe4>\x02\xfd\r?'
tbtp1919
a(S'/data/ad6813/pipe-data/BlueboxTemp/201768.jpg'
p1920
g3
(g4
(I0
tS'b'
tRp1921
(I1
(I2
tg7
I00
S'\xec\xbd-?)\x84\xa4>'
tbtp1922
a(S'/data/ad6813/pipe-data/BlueboxTemp/201780.jpg'
p1923
g3
(g4
(I0
tS'b'
tRp1924
(I1
(I2
tg7
I00
S'5\xce@>s\xccO?'
tbtp1925
a(S'/data/ad6813/pipe-data/BlueboxTemp/201783.jpg'
p1926
g3
(g4
(I0
tS'b'
tRp1927
(I1
(I2
tg7
I00
S'\x1f2\xa4>\xf0\xe6-?'
tbtp1928
a(S'/data/ad6813/pipe-data/BlueboxTemp/201793.jpg'
p1929
g3
(g4
(I0
tS'b'
tRp1930
(I1
(I2
tg7
I00
S'\xae\xa2\xfa>\xa9\xae\x02?'
tbtp1931
a(S'/data/ad6813/pipe-data/BlueboxTemp/201794.jpg'
p1932
g3
(g4
(I0
tS'b'
tRp1933
(I1
(I2
tg7
I00
S'\x0co\xc6>z\xc8\x1c?'
tbtp1934
a(S'/data/ad6813/pipe-data/BlueboxTemp/201795.jpg'
p1935
g3
(g4
(I0
tS'b'
tRp1936
(I1
(I2
tg7
I00
S'\xcc\xfe\x8c>\x9b\x809?'
tbtp1937
a(S'/data/ad6813/pipe-data/BlueboxTemp/201800.jpg'
p1938
g3
(g4
(I0
tS'b'
tRp1939
(I1
(I2
tg7
I00
S'<\x82*?\x87\xfb\xaa>'
tbtp1940
a(S'/data/ad6813/pipe-data/BlueboxTemp/201804.jpg'
p1941
g3
(g4
(I0
tS'b'
tRp1942
(I1
(I2
tg7
I00
S'\xe9\xd7(?.P\xae>'
tbtp1943
a(S'/data/ad6813/pipe-data/BlueboxTemp/201807.jpg'
p1944
g3
(g4
(I0
tS'b'
tRp1945
(I1
(I2
tg7
I00
S'2k\x04?\x9d)\xf7>'
tbtp1946
a(S'/data/ad6813/pipe-data/BlueboxTemp/201808.jpg'
p1947
g3
(g4
(I0
tS'b'
tRp1948
(I1
(I2
tg7
I00
S'p\x93\x04?!\xd9\xf6>'
tbtp1949
a(S'/data/ad6813/pipe-data/BlueboxTemp/201810.jpg'
p1950
g3
(g4
(I0
tS'b'
tRp1951
(I1
(I2
tg7
I00
S'\x07N\xb3>\xfcX&?'
tbtp1952
a(S'/data/ad6813/pipe-data/BlueboxTemp/201811.jpg'
p1953
g3
(g4
(I0
tS'b'
tRp1954
(I1
(I2
tg7
I00
S'\xd9\x8ay>J\x9dA?'
tbtp1955
a(S'/data/ad6813/pipe-data/BlueboxTemp/201819.jpg'
p1956
g3
(g4
(I0
tS'b'
tRp1957
(I1
(I2
tg7
I00
S'\xac\xe2=>U\x87P?'
tbtp1958
a(S'/data/ad6813/pipe-data/BlueboxTemp/201829.jpg'
p1959
g3
(g4
(I0
tS'b'
tRp1960
(I1
(I2
tg7
I00
S'\xf2\xf6\x9b>\x86\x042?'
tbtp1961
a(S'/data/ad6813/pipe-data/BlueboxTemp/201833.jpg'
p1962
g3
(g4
(I0
tS'b'
tRp1963
(I1
(I2
tg7
I00
S'\x0c\x8a\x10?\xeb\xeb\xde>'
tbtp1964
a(S'/data/ad6813/pipe-data/BlueboxTemp/201840.jpg'
p1965
g3
(g4
(I0
tS'b'
tRp1966
(I1
(I2
tg7
I00
S'\xdeph?\x13y\xbc='
tbtp1967
a(S'/data/ad6813/pipe-data/BlueboxTemp/201844.jpg'
p1968
g3
(g4
(I0
tS'b'
tRp1969
(I1
(I2
tg7
I00
S' \xed4?\xc3%\x96>'
tbtp1970
a(S'/data/ad6813/pipe-data/BlueboxTemp/201855.jpg'
p1971
g3
(g4
(I0
tS'b'
tRp1972
(I1
(I2
tg7
I00
S'\x9c\x9f\x06?\xc8\xc0\xf2>'
tbtp1973
a(S'/data/ad6813/pipe-data/BlueboxTemp/201856.jpg'
p1974
g3
(g4
(I0
tS'b'
tRp1975
(I1
(I2
tg7
I00
S'F\x114?r\xdd\x97>'
tbtp1976
a(S'/data/ad6813/pipe-data/BlueboxTemp/201866.jpg'
p1977
g3
(g4
(I0
tS'b'
tRp1978
(I1
(I2
tg7
I00
S'2\xf9j?t6\xa8='
tbtp1979
a(S'/data/ad6813/pipe-data/BlueboxTemp/201872.jpg'
p1980
g3
(g4
(I0
tS'b'
tRp1981
(I1
(I2
tg7
I00
S'\xdb\xd9\x1a?GL\xca>'
tbtp1982
a(S'/data/ad6813/pipe-data/BlueboxTemp/201886.jpg'
p1983
g3
(g4
(I0
tS'b'
tRp1984
(I1
(I2
tg7
I00
S'\xe3\xbc\x07?9\x86\xf0>'
tbtp1985
a(S'/data/ad6813/pipe-data/BlueboxTemp/201889.jpg'
p1986
g3
(g4
(I0
tS'b'
tRp1987
(I1
(I2
tg7
I00
S'c\xdep?\xc7\x19r='
tbtp1988
a(S'/data/ad6813/pipe-data/BlueboxTemp/201890.jpg'
p1989
g3
(g4
(I0
tS'b'
tRp1990
(I1
(I2
tg7
I00
S'\xc1u\x15?}\x14\xd5>'
tbtp1991
a(S'/data/ad6813/pipe-data/BlueboxTemp/201891.jpg'
p1992
g3
(g4
(I0
tS'b'
tRp1993
(I1
(I2
tg7
I00
S'\xf6\x95X?$\xa8\x1d>'
tbtp1994
a(S'/data/ad6813/pipe-data/BlueboxTemp/201892.jpg'
p1995
g3
(g4
(I0
tS'b'
tRp1996
(I1
(I2
tg7
I00
S'u[\x0e?\x17I\xe3>'
tbtp1997
a(S'/data/ad6813/pipe-data/BlueboxTemp/201898.jpg'
p1998
g3
(g4
(I0
tS'b'
tRp1999
(I1
(I2
tg7
I00
S'\xae\x1b\x1d?\xa2\xc8\xc5>'
tbtp2000
a(S'/data/ad6813/pipe-data/BlueboxTemp/201916.jpg'
p2001
g3
(g4
(I0
tS'b'
tRp2002
(I1
(I2
tg7
I00
S'o\xc3C?F\xf2p>'
tbtp2003
a(S'/data/ad6813/pipe-data/BlueboxTemp/201921.jpg'
p2004
g3
(g4
(I0
tS'b'
tRp2005
(I1
(I2
tg7
I00
S'\xefMU?H\xc8*>'
tbtp2006
a(S'/data/ad6813/pipe-data/BlueboxTemp/201922.jpg'
p2007
g3
(g4
(I0
tS'b'
tRp2008
(I1
(I2
tg7
I00
S'<\xeb\xf2>b\x8a\x06?'
tbtp2009
a(S'/data/ad6813/pipe-data/BlueboxTemp/201924.jpg'
p2010
g3
(g4
(I0
tS'b'
tRp2011
(I1
(I2
tg7
I00
S'\xe2v\x08?:\x12\xef>'
tbtp2012
a(S'/data/ad6813/pipe-data/BlueboxTemp/201926.jpg'
p2013
g3
(g4
(I0
tS'b'
tRp2014
(I1
(I2
tg7
I00
S'@$)?\x82\xb7\xad>'
tbtp2015
a(S'/data/ad6813/pipe-data/BlueboxTemp/201927.jpg'
p2016
g3
(g4
(I0
tS'b'
tRp2017
(I1
(I2
tg7
I00
S'_\xabT?\x85R->'
tbtp2018
a(S'/data/ad6813/pipe-data/BlueboxTemp/201935.jpg'
p2019
g3
(g4
(I0
tS'b'
tRp2020
(I1
(I2
tg7
I00
S'3v\xed>\xe6D\t?'
tbtp2021
a(S'/data/ad6813/pipe-data/BlueboxTemp/201937.jpg'
p2022
g3
(g4
(I0
tS'b'
tRp2023
(I1
(I2
tg7
I00
S'\x00\xb9=?\x00\x8e\x84>'
tbtp2024
a(S'/data/ad6813/pipe-data/BlueboxTemp/201939.jpg'
p2025
g3
(g4
(I0
tS'b'
tRp2026
(I1
(I2
tg7
I00
S'\x86\xac-?\xf2\xa6\xa4>'
tbtp2027
a(S'/data/ad6813/pipe-data/BlueboxTemp/201942.jpg'
p2028
g3
(g4
(I0
tS'b'
tRp2029
(I1
(I2
tg7
I00
S'\xabN\xe6>\xab\xd8\x0c?'
tbtp2030
a(S'/data/ad6813/pipe-data/BlueboxTemp/201951.jpg'
p2031
g3
(g4
(I0
tS'b'
tRp2032
(I1
(I2
tg7
I00
S"'KI?c\xd3Z>"
tbtp2033
a(S'/data/ad6813/pipe-data/BlueboxTemp/201977.jpg'
p2034
g3
(g4
(I0
tS'b'
tRp2035
(I1
(I2
tg7
I00
S'\xfa\x91\xc8>\x03\xb7\x1b?'
tbtp2036
a(S'/data/ad6813/pipe-data/BlueboxTemp/201986.jpg'
p2037
g3
(g4
(I0
tS'b'
tRp2038
(I1
(I2
tg7
I00
S'\x14\xebq?\xc8Na='
tbtp2039
a(S'/data/ad6813/pipe-data/BlueboxTemp/201987.jpg'
p2040
g3
(g4
(I0
tS'b'
tRp2041
(I1
(I2
tg7
I00
S'\xd8\xc7K?\x9b\xe0P>'
tbtp2042
a(S'/data/ad6813/pipe-data/BlueboxTemp/201988.jpg'
p2043
g3
(g4
(I0
tS'b'
tRp2044
(I1
(I2
tg7
I00
S'\xdd\xecV?\x8cL$>'
tbtp2045
a(S'/data/ad6813/pipe-data/BlueboxTemp/201991.jpg'
p2046
g3
(g4
(I0
tS'b'
tRp2047
(I1
(I2
tg7
I00
S'\xbb\x17S?\x0f\xa13>'
tbtp2048
a(S'/data/ad6813/pipe-data/BlueboxTemp/201999.jpg'
p2049
g3
(g4
(I0
tS'b'
tRp2050
(I1
(I2
tg7
I00
S'\xa9%3?\xb0\xb4\x99>'
tbtp2051
a(S'/data/ad6813/pipe-data/BlueboxTemp/202003.jpg'
p2052
g3
(g4
(I0
tS'b'
tRp2053
(I1
(I2
tg7
I00
S')\x11L?_\xbbO>'
tbtp2054
a(S'/data/ad6813/pipe-data/BlueboxTemp/202004.jpg'
p2055
g3
(g4
(I0
tS'b'
tRp2056
(I1
(I2
tg7
I00
S'\xc3ma?\xf1\x91\xf4='
tbtp2057
a(S'/data/ad6813/pipe-data/BlueboxTemp/202006.jpg'
p2058
g3
(g4
(I0
tS'b'
tRp2059
(I1
(I2
tg7
I00
S'C\xcd\r?ye\xe4>'
tbtp2060
a(S'/data/ad6813/pipe-data/BlueboxTemp/202007.jpg'
p2061
g3
(g4
(I0
tS'b'
tRp2062
(I1
(I2
tg7
I00
S'$\x1e\xe1>\xeep\x0f?'
tbtp2063
a(S'/data/ad6813/pipe-data/BlueboxTemp/202012.jpg'
p2064
g3
(g4
(I0
tS'b'
tRp2065
(I1
(I2
tg7
I00
S'u\xe8\x0b?\x18/\xe8>'
tbtp2066
a(S'/data/ad6813/pipe-data/BlueboxTemp/202030.jpg'
p2067
g3
(g4
(I0
tS'b'
tRp2068
(I1
(I2
tg7
I00
S'a\xeeT?}F,>'
tbtp2069
a(S'/data/ad6813/pipe-data/BlueboxTemp/202045.jpg'
p2070
g3
(g4
(I0
tS'b'
tRp2071
(I1
(I2
tg7
I00
S'V\xa5H?\xa4j]>'
tbtp2072
a(S'/data/ad6813/pipe-data/BlueboxTemp/202047.jpg'
p2073
g3
(g4
(I0
tS'b'
tRp2074
(I1
(I2
tg7
I00
S'\xcf-L?\xc4HO>'
tbtp2075
a(S'/data/ad6813/pipe-data/BlueboxTemp/202048.jpg'
p2076
g3
(g4
(I0
tS'b'
tRp2077
(I1
(I2
tg7
I00
S'\x9f\x9a\x1c?\xc1\xca\xc6>'
tbtp2078
a(S'/data/ad6813/pipe-data/BlueboxTemp/202049.jpg'
p2079
g3
(g4
(I0
tS'b'
tRp2080
(I1
(I2
tg7
I00
S'\x9f\x8cP?\x86\xcd=>'
tbtp2081
a(S'/data/ad6813/pipe-data/BlueboxTemp/202050.jpg'
p2082
g3
(g4
(I0
tS'b'
tRp2083
(I1
(I2
tg7
I00
S'V\x9cN?\xa9\x8eE>'
tbtp2084
a(S'/data/ad6813/pipe-data/BlueboxTemp/202070.jpg'
p2085
g3
(g4
(I0
tS'b'
tRp2086
(I1
(I2
tg7
I00
S'\x03\xc9L?\xf4\xdbL>'
tbtp2087
a(S'/data/ad6813/pipe-data/BlueboxTemp/202103.jpg'
p2088
g3
(g4
(I0
tS'b'
tRp2089
(I1
(I2
tg7
I00
S'\xe4Y\x13?8L\xd9>'
tbtp2090
a(S'/data/ad6813/pipe-data/BlueboxTemp/202105.jpg'
p2091
g3
(g4
(I0
tS'b'
tRp2092
(I1
(I2
tg7
I00
S'\xf0S&?\x1fX\xb3>'
tbtp2093
a(S'/data/ad6813/pipe-data/BlueboxTemp/202106.jpg'
p2094
g3
(g4
(I0
tS'b'
tRp2095
(I1
(I2
tg7
I00
S'\x9es\\?\x871\x0e>'
tbtp2096
a(S'/data/ad6813/pipe-data/BlueboxTemp/202114.jpg'
p2097
g3
(g4
(I0
tS'b'
tRp2098
(I1
(I2
tg7
I00
S'<\x9d\x1e?\x89\xc5\xc2>'
tbtp2099
a(S'/data/ad6813/pipe-data/BlueboxTemp/202119.jpg'
p2100
g3
(g4
(I0
tS'b'
tRp2101
(I1
(I2
tg7
I00
S'\rdk?\x9e\xdf\xa4='
tbtp2102
a(S'/data/ad6813/pipe-data/BlueboxTemp/202128.jpg'
p2103
g3
(g4
(I0
tS'b'
tRp2104
(I1
(I2
tg7
I00
S'\x85z`?\xd5+\xfc='
tbtp2105
a(S'/data/ad6813/pipe-data/BlueboxTemp/202139.jpg'
p2106
g3
(g4
(I0
tS'b'
tRp2107
(I1
(I2
tg7
I00
S'\x13\xbb\x1a?\xd9\x89\xca>'
tbtp2108
a(S'/data/ad6813/pipe-data/BlueboxTemp/202140.jpg'
p2109
g3
(g4
(I0
tS'b'
tRp2110
(I1
(I2
tg7
I00
S'\xbd9\xea>"\xe3\n?'
tbtp2111
a(S'/data/ad6813/pipe-data/BlueboxTemp/202154.jpg'
p2112
g3
(g4
(I0
tS'b'
tRp2113
(I1
(I2
tg7
I00
S'Up\xf2>\xd5\xc7\x06?'
tbtp2114
a(S'/data/ad6813/pipe-data/BlueboxTemp/202155.jpg'
p2115
g3
(g4
(I0
tS'b'
tRp2116
(I1
(I2
tg7
I00
S'\xee\xe6\x07?&2\xf0>'
tbtp2117
a(S'/data/ad6813/pipe-data/BlueboxTemp/202188.jpg'
p2118
g3
(g4
(I0
tS'b'
tRp2119
(I1
(I2
tg7
I00
S'\xebis?]aI='
tbtp2120
a(S'/data/ad6813/pipe-data/BlueboxTemp/202194.jpg'
p2121
g3
(g4
(I0
tS'b'
tRp2122
(I1
(I2
tg7
I00
S'\x91A%?\xdd|\xb5>'
tbtp2123
a(S'/data/ad6813/pipe-data/BlueboxTemp/202195.jpg'
p2124
g3
(g4
(I0
tS'b'
tRp2125
(I1
(I2
tg7
I00
S"'\x8dg?\xce\x96\xc3="
tbtp2126
a(S'/data/ad6813/pipe-data/BlueboxTemp/202196.jpg'
p2127
g3
(g4
(I0
tS'b'
tRp2128
(I1
(I2
tg7
I00
S'\xba\xb9\x05?\x8a\x8c\xf4>'
tbtp2129
a(S'/data/ad6813/pipe-data/BlueboxTemp/202198.jpg'
p2130
g3
(g4
(I0
tS'b'
tRp2131
(I1
(I2
tg7
I00
S'\xb7\xfem?E\n\x90='
tbtp2132
a(S'/data/ad6813/pipe-data/BlueboxTemp/202205.jpg'
p2133
g3
(g4
(I0
tS'b'
tRp2134
(I1
(I2
tg7
I00
S'{\xe8-?\t/\xa4>'
tbtp2135
a(S'/data/ad6813/pipe-data/BlueboxTemp/202217.jpg'
p2136
g3
(g4
(I0
tS'b'
tRp2137
(I1
(I2
tg7
I00
S'5t)?\x95\x17\xad>'
tbtp2138
a(S'/data/ad6813/pipe-data/BlueboxTemp/202222.jpg'
p2139
g3
(g4
(I0
tS'b'
tRp2140
(I1
(I2
tg7
I00
S'+\x81\xe7>k?\x0c?'
tbtp2141
a(S'/data/ad6813/pipe-data/BlueboxTemp/202225.jpg'
p2142
g3
(g4
(I0
tS'b'
tRp2143
(I1
(I2
tg7
I00
S'\x96\x00\x1a?\xd3\xfe\xcb>'
tbtp2144
a(S'/data/ad6813/pipe-data/BlueboxTemp/202231.jpg'
p2145
g3
(g4
(I0
tS'b'
tRp2146
(I1
(I2
tg7
I00
S'\xbbn\xef>\xa2H\x08?'
tbtp2147
a(S'/data/ad6813/pipe-data/BlueboxTemp/202278.jpg'
p2148
g3
(g4
(I0
tS'b'
tRp2149
(I1
(I2
tg7
I00
S']\x00D?\x8e\xfeo>'
tbtp2150
a(S'/data/ad6813/pipe-data/BlueboxTemp/202280.jpg'
p2151
g3
(g4
(I0
tS'b'
tRp2152
(I1
(I2
tg7
I00
S'O\rB?\xc5\xcaw>'
tbtp2153
a(S'/data/ad6813/pipe-data/BlueboxTemp/202288.jpg'
p2154
g3
(g4
(I0
tS'b'
tRp2155
(I1
(I2
tg7
I00
S'Baj?\xf3\xf5\xac='
tbtp2156
a(S'/data/ad6813/pipe-data/BlueboxTemp/202294.jpg'
p2157
g3
(g4
(I0
tS'b'
tRp2158
(I1
(I2
tg7
I00
S'\xcc5\\?\xcd(\x0f>'
tbtp2159
a(S'/data/ad6813/pipe-data/BlueboxTemp/202295.jpg'
p2160
g3
(g4
(I0
tS'b'
tRp2161
(I1
(I2
tg7
I00
S'\x8fNm?\x83\x8b\x95='
tbtp2162
a(S'/data/ad6813/pipe-data/BlueboxTemp/202299.jpg'
p2163
g3
(g4
(I0
tS'b'
tRp2164
(I1
(I2
tg7
I00
S'\xf0R&?\x1fZ\xb3>'
tbtp2165
a(S'/data/ad6813/pipe-data/BlueboxTemp/202306.jpg'
p2166
g3
(g4
(I0
tS'b'
tRp2167
(I1
(I2
tg7
I00
S'\xa0V\n?\xc0R\xeb>'
tbtp2168
a(S'/data/ad6813/pipe-data/BlueboxTemp/202334.jpg'
p2169
g3
(g4
(I0
tS'b'
tRp2170
(I1
(I2
tg7
I00
S'Q\xe0:?]?\x8a>'
tbtp2171
a(S'/data/ad6813/pipe-data/BlueboxTemp/202336.jpg'
p2172
g3
(g4
(I0
tS'b'
tRp2173
(I1
(I2
tg7
I00
S'\x08(\x1b?\xf0\xaf\xc9>'
tbtp2174
a(S'/data/ad6813/pipe-data/BlueboxTemp/202337.jpg'
p2175
g3
(g4
(I0
tS'b'
tRp2176
(I1
(I2
tg7
I00
S'T\x04#?X\xf7\xb9>'
tbtp2177
a(S'/data/ad6813/pipe-data/BlueboxTemp/202342.jpg'
p2178
g3
(g4
(I0
tS'b'
tRp2179
(I1
(I2
tg7
I00
S'\x91\x8bP?\xb8\xd1=>'
tbtp2180
a(S'/data/ad6813/pipe-data/BlueboxTemp/202352.jpg'
p2181
g3
(g4
(I0
tS'b'
tRp2182
(I1
(I2
tg7
I00
S'8p`??~\xfc='
tbtp2183
a(S'/data/ad6813/pipe-data/BlueboxTemp/202356.jpg'
p2184
g3
(g4
(I0
tS'b'
tRp2185
(I1
(I2
tg7
I00
S'K\x87e?\xa3\xc5\xd3='
tbtp2186
a(S'/data/ad6813/pipe-data/BlueboxTemp/202361.jpg'
p2187
g3
(g4
(I0
tS'b'
tRp2188
(I1
(I2
tg7
I00
S'okb?\x87\xa4\xec='
tbtp2189
a(S'/data/ad6813/pipe-data/BlueboxTemp/202362.jpg'
p2190
g3
(g4
(I0
tS'b'
tRp2191
(I1
(I2
tg7
I00
S'\x9c\xdaQ?\x90\x958>'
tbtp2192
a(S'/data/ad6813/pipe-data/BlueboxTemp/202378.jpg'
p2193
g3
(g4
(I0
tS'b'
tRp2194
(I1
(I2
tg7
I00
S'\xb3W;?\x98P\x89>'
tbtp2195
a(S'/data/ad6813/pipe-data/BlueboxTemp/202379.jpg'
p2196
g3
(g4
(I0
tS'b'
tRp2197
(I1
(I2
tg7
I00
S'\xe0\xb6,?@\x92\xa6>'
tbtp2198
a(S'/data/ad6813/pipe-data/BlueboxTemp/202388.jpg'
p2199
g3
(g4
(I0
tS'b'
tRp2200
(I1
(I2
tg7
I00
S'\x99\x14T?\x9d\xad/>'
tbtp2201
a(S'/data/ad6813/pipe-data/BlueboxTemp/202406.jpg'
p2202
g3
(g4
(I0
tS'b'
tRp2203
(I1
(I2
tg7
I00
S'\x8b\x89\xff>:;\x00?'
tbtp2204
a(S'/data/ad6813/pipe-data/BlueboxTemp/202408.jpg'
p2205
g3
(g4
(I0
tS'b'
tRp2206
(I1
(I2
tg7
I00
S'\xc5f\x0e?w2\xe3>'
tbtp2207
a(S'/data/ad6813/pipe-data/BlueboxTemp/202415.jpg'
p2208
g3
(g4
(I0
tS'b'
tRp2209
(I1
(I2
tg7
I00
S'\xd9v\xab>\x93D*?'
tbtp2210
a(S'/data/ad6813/pipe-data/BlueboxTemp/202419.jpg'
p2211
g3
(g4
(I0
tS'b'
tRp2212
(I1
(I2
tg7
I00
S'\x8f)\xfa>9\xeb\x02?'
tbtp2213
a(S'/data/ad6813/pipe-data/BlueboxTemp/202423.jpg'
p2214
g3
(g4
(I0
tS'b'
tRp2215
(I1
(I2
tg7
I00
S'\xfd\x89g?\x10\xb0\xc3='
tbtp2216
a(S'/data/ad6813/pipe-data/BlueboxTemp/202424.jpg'
p2217
g3
(g4
(I0
tS'b'
tRp2218
(I1
(I2
tg7
I00
S'\xe6\xee\xcc>\x8d\x88\x19?'
tbtp2219
a(S'/data/ad6813/pipe-data/BlueboxTemp/202425.jpg'
p2220
g3
(g4
(I0
tS'b'
tRp2221
(I1
(I2
tg7
I00
S'\xab(\x1f?\xac\xae\xc1>'
tbtp2222
a(S'/data/ad6813/pipe-data/BlueboxTemp/202434.jpg'
p2223
g3
(g4
(I0
tS'b'
tRp2224
(I1
(I2
tg7
I00
S'\xf1\x9ai?}(\xb3='
tbtp2225
a(S'/data/ad6813/pipe-data/BlueboxTemp/202441.jpg'
p2226
g3
(g4
(I0
tS'b'
tRp2227
(I1
(I2
tg7
I00
S',{\xca>j\xc2\x1a?'
tbtp2228
a(S'/data/ad6813/pipe-data/BlueboxTemp/202442.jpg'
p2229
g3
(g4
(I0
tS'b'
tRp2230
(I1
(I2
tg7
I00
S'0&\x9d>\xe7l1?'
tbtp2231
a(S'/data/ad6813/pipe-data/BlueboxTemp/202445.jpg'
p2232
g3
(g4
(I0
tS'b'
tRp2233
(I1
(I2
tg7
I00
S'\xb0\x98\xed>\xa83\t?'
tbtp2234
a(S'/data/ad6813/pipe-data/BlueboxTemp/202456.jpg'
p2235
g3
(g4
(I0
tS'b'
tRp2236
(I1
(I2
tg7
I00
S'\xbb\xddp?P$r='
tbtp2237
a(S'/data/ad6813/pipe-data/BlueboxTemp/202464.jpg'
p2238
g3
(g4
(I0
tS'b'
tRp2239
(I1
(I2
tg7
I00
S'\xac\x1e\x1d?\xab\xc2\xc5>'
tbtp2240
a(S'/data/ad6813/pipe-data/BlueboxTemp/202470.jpg'
p2241
g3
(g4
(I0
tS'b'
tRp2242
(I1
(I2
tg7
I00
S'Lu\xb2>Z\xc5&?'
tbtp2243
a(S'/data/ad6813/pipe-data/BlueboxTemp/202471.jpg'
p2244
g3
(g4
(I0
tS'b'
tRp2245
(I1
(I2
tg7
I00
S'\xc6*\xeb>\x9dj\n?'
tbtp2246
a(S'/data/ad6813/pipe-data/BlueboxTemp/202497.jpg'
p2247
g3
(g4
(I0
tS'b'
tRp2248
(I1
(I2
tg7
I00
S'\xd8\xe0\x13?O>\xd8>'
tbtp2249
a(S'/data/ad6813/pipe-data/BlueboxTemp/202504.jpg'
p2250
g3
(g4
(I0
tS'b'
tRp2251
(I1
(I2
tg7
I00
S'\xcc\xd1\xc7>\x1a\x17\x1c?'
tbtp2252
a(S'/data/ad6813/pipe-data/BlueboxTemp/202508.jpg'
p2253
g3
(g4
(I0
tS'b'
tRp2254
(I1
(I2
tg7
I00
S'\xce0\xd0>\x99\xe7\x17?'
tbtp2255
a(S'/data/ad6813/pipe-data/BlueboxTemp/202514.jpg'
p2256
g3
(g4
(I0
tS'b'
tRp2257
(I1
(I2
tg7
I00
S'\xe7\x12\xac>\x8c\xf6)?'
tbtp2258
a(S'/data/ad6813/pipe-data/BlueboxTemp/202518.jpg'
p2259
g3
(g4
(I0
tS'b'
tRp2260
(I1
(I2
tg7
I00
S'\xe0\xc40?@v\x9e>'
tbtp2261
a(S'/data/ad6813/pipe-data/BlueboxTemp/202525.jpg'
p2262
g3
(g4
(I0
tS'b'
tRp2263
(I1
(I2
tg7
I00
S'\x1a\xb5\x04?\xc9\x95\xf6>'
tbtp2264
a(S'/data/ad6813/pipe-data/BlueboxTemp/202530.jpg'
p2265
g3
(g4
(I0
tS'b'
tRp2266
(I1
(I2
tg7
I00
S'\xd9\x7f\xc2>\x13\xc0\x1e?'
tbtp2267
a(S'/data/ad6813/pipe-data/BlueboxTemp/202555.jpg'
p2268
g3
(g4
(I0
tS'b'
tRp2269
(I1
(I2
tg7
I00
S'ru\x12?\x1c\x15\xdb>'
tbtp2270
a(S'/data/ad6813/pipe-data/BlueboxTemp/202559.jpg'
p2271
g3
(g4
(I0
tS'b'
tRp2272
(I1
(I2
tg7
I00
S'\x83X1?\xfaN\x9d>'
tbtp2273
a(S'/data/ad6813/pipe-data/BlueboxTemp/202563.jpg'
p2274
g3
(g4
(I0
tS'b'
tRp2275
(I1
(I2
tg7
I00
S'o\xd1\x16?"]\xd2>'
tbtp2276
a(S'/data/ad6813/pipe-data/BlueboxTemp/202565.jpg'
p2277
g3
(g4
(I0
tS'b'
tRp2278
(I1
(I2
tg7
I00
S'\xdc#-?J\xb8\xa5>'
tbtp2279
a(S'/data/ad6813/pipe-data/BlueboxTemp/202566.jpg'
p2280
g3
(g4
(I0
tS'b'
tRp2281
(I1
(I2
tg7
I00
S'\xaf\xef\xdf>(\x08\x10?'
tbtp2282
a(S'/data/ad6813/pipe-data/BlueboxTemp/202568.jpg'
p2283
g3
(g4
(I0
tS'b'
tRp2284
(I1
(I2
tg7
I00
S'\x84\x86\xe0>\xbe\xbc\x0f?'
tbtp2285
a(S'/data/ad6813/pipe-data/BlueboxTemp/202569.jpg'
p2286
g3
(g4
(I0
tS'b'
tRp2287
(I1
(I2
tg7
I00
S'\x1a\xb3&?\xcc\x99\xb2>'
tbtp2288
a(S'/data/ad6813/pipe-data/BlueboxTemp/202571.jpg'
p2289
g3
(g4
(I0
tS'b'
tRp2290
(I1
(I2
tg7
I00
S"_o'?D!\xb1>"
tbtp2291
a(S'/data/ad6813/pipe-data/BlueboxTemp/202572.jpg'
p2292
g3
(g4
(I0
tS'b'
tRp2293
(I1
(I2
tg7
I00
S'\xae\x1c\x03?\xa2\xc6\xf9>'
tbtp2294
a(S'/data/ad6813/pipe-data/BlueboxTemp/202574.jpg'
p2295
g3
(g4
(I0
tS'b'
tRp2296
(I1
(I2
tg7
I00
S'9=\x1a?\x8d\x85\xcb>'
tbtp2297
a(S'/data/ad6813/pipe-data/BlueboxTemp/202580.jpg'
p2298
g3
(g4
(I0
tS'b'
tRp2299
(I1
(I2
tg7
I00
S'\x03D;?\xfcw\x89>'
tbtp2300
a(S'/data/ad6813/pipe-data/BlueboxTemp/202586.jpg'
p2301
g3
(g4
(I0
tS'b'
tRp2302
(I1
(I2
tg7
I00
S'O\xd3#?`Y\xb8>'
tbtp2303
a(S'/data/ad6813/pipe-data/BlueboxTemp/202591.jpg'
p2304
g3
(g4
(I0
tS'b'
tRp2305
(I1
(I2
tg7
I00
S'\xc5\xba ?u\x8a\xbe>'
tbtp2306
a(S'/data/ad6813/pipe-data/BlueboxTemp/202594.jpg'
p2307
g3
(g4
(I0
tS'b'
tRp2308
(I1
(I2
tg7
I00
S'\xf2z\x03?\x1d\n\xf9>'
tbtp2309
a(S'/data/ad6813/pipe-data/BlueboxTemp/202596.jpg'
p2310
g3
(g4
(I0
tS'b'
tRp2311
(I1
(I2
tg7
I00
S')z\xc3>\xebB\x1e?'
tbtp2312
a(S'/data/ad6813/pipe-data/BlueboxTemp/202600.jpg'
p2313
g3
(g4
(I0
tS'b'
tRp2314
(I1
(I2
tg7
I00
S'\xef\x17\xc6>\x08\xf4\x1c?'
tbtp2315
a(S'/data/ad6813/pipe-data/BlueboxTemp/202604.jpg'
p2316
g3
(g4
(I0
tS'b'
tRp2317
(I1
(I2
tg7
I00
S'l\xbc\xe0>\xca\xa1\x0f?'
tbtp2318
a(S'/data/ad6813/pipe-data/BlueboxTemp/202609.jpg'
p2319
g3
(g4
(I0
tS'b'
tRp2320
(I1
(I2
tg7
I00
S"`\xb1\xf5>O'\x05?"
tbtp2321
a(S'/data/ad6813/pipe-data/BlueboxTemp/202613.jpg'
p2322
g3
(g4
(I0
tS'b'
tRp2323
(I1
(I2
tg7
I00
S'\xf5\xd6\t?\x16R\xec>'
tbtp2324
a(S'/data/ad6813/pipe-data/BlueboxTemp/202618.jpg'
p2325
g3
(g4
(I0
tS'b'
tRp2326
(I1
(I2
tg7
I00
S'\xb4\x01C?/\xf9s>'
tbtp2327
a(S'/data/ad6813/pipe-data/BlueboxTemp/202620.jpg'
p2328
g3
(g4
(I0
tS'b'
tRp2329
(I1
(I2
tg7
I00
S'\tgP?\xd8c>>'
tbtp2330
a(S'/data/ad6813/pipe-data/BlueboxTemp/202626.jpg'
p2331
g3
(g4
(I0
tS'b'
tRp2332
(I1
(I2
tg7
I00
S'\x15\x81,?\xd7\xfd\xa6>'
tbtp2333
a(S'/data/ad6813/pipe-data/BlueboxTemp/202637.jpg'
p2334
g3
(g4
(I0
tS'b'
tRp2335
(I1
(I2
tg7
I00
S'>\xf9i?\x176\xb0='
tbtp2336
a(S'/data/ad6813/pipe-data/BlueboxTemp/202638.jpg'
p2337
g3
(g4
(I0
tS'b'
tRp2338
(I1
(I2
tg7
I00
S'$\x7f6?\xb9\x01\x93>'
tbtp2339
a(S'/data/ad6813/pipe-data/BlueboxTemp/202647.jpg'
p2340
g3
(g4
(I0
tS'b'
tRp2341
(I1
(I2
tg7
I00
S'\x83\xc7X?\xf0\xe1\x1c>'
tbtp2342
a(S'/data/ad6813/pipe-data/BlueboxTemp/202651.jpg'
p2343
g3
(g4
(I0
tS'b'
tRp2344
(I1
(I2
tg7
I00
S'dLN?o\xceF>'
tbtp2345
a(S'/data/ad6813/pipe-data/BlueboxTemp/202655.jpg'
p2346
g3
(g4
(I0
tS'b'
tRp2347
(I1
(I2
tg7
I00
S'\xd2R(?]Z\xaf>'
tbtp2348
a(S'/data/ad6813/pipe-data/BlueboxTemp/202665.jpg'
p2349
g3
(g4
(I0
tS'b'
tRp2350
(I1
(I2
tg7
I00
S'\x9b\xcfR?\x91\xc14>'
tbtp2351
a(S'/data/ad6813/pipe-data/BlueboxTemp/202673.jpg'
p2352
g3
(g4
(I0
tS'b'
tRp2353
(I1
(I2
tg7
I00
S'\x92\xe2b?l\xeb\xe8='
tbtp2354
a(S'/data/ad6813/pipe-data/BlueboxTemp/202679.jpg'
p2355
g3
(g4
(I0
tS'b'
tRp2356
(I1
(I2
tg7
I00
S'\x9b\xd3L?\x93\xb1L>'
tbtp2357
a(S'/data/ad6813/pipe-data/BlueboxTemp/202687.jpg'
p2358
g3
(g4
(I0
tS'b'
tRp2359
(I1
(I2
tg7
I00
S'\xd1\xb6:>LRQ?'
tbtp2360
a(S'/data/ad6813/pipe-data/BlueboxTemp/202695.jpg'
p2361
g3
(g4
(I0
tS'b'
tRp2362
(I1
(I2
tg7
I00
S'\x93\xc4\x1e?\xdav\xc2>'
tbtp2363
a(S'/data/ad6813/pipe-data/BlueboxTemp/202696.jpg'
p2364
g3
(g4
(I0
tS'b'
tRp2365
(I1
(I2
tg7
I00
S'JRO?\xd5\xb6B>'
tbtp2366
a(S'/data/ad6813/pipe-data/BlueboxTemp/202698.jpg'
p2367
g3
(g4
(I0
tS'b'
tRp2368
(I1
(I2
tg7
I00
S'z]\xe6>B\xd1\x0c?'
tbtp2369
a(S'/data/ad6813/pipe-data/BlueboxTemp/202699.jpg'
p2370
g3
(g4
(I0
tS'b'
tRp2371
(I1
(I2
tg7
I00
S'\xc9\xbe\x03?q\x82\xf8>'
tbtp2372
a(S'/data/ad6813/pipe-data/BlueboxTemp/202707.jpg'
p2373
g3
(g4
(I0
tS'b'
tRp2374
(I1
(I2
tg7
I00
S'\xc4\xb4P>\xcf\xd2K?'
tbtp2375
a(S'/data/ad6813/pipe-data/BlueboxTemp/202712.jpg'
p2376
g3
(g4
(I0
tS'b'
tRp2377
(I1
(I2
tg7
I00
S'R\xca\xb7>\xd8\x1a$?'
tbtp2378
a(S'/data/ad6813/pipe-data/BlueboxTemp/202718.jpg'
p2379
g3
(g4
(I0
tS'b'
tRp2380
(I1
(I2
tg7
I00
S'<\xe1\x12?\x8a=\xda>'
tbtp2381
a(S'/data/ad6813/pipe-data/BlueboxTemp/202727.jpg'
p2382
g3
(g4
(I0
tS'b'
tRp2383
(I1
(I2
tg7
I00
S'!\xcf\xd2>p\x98\x16?'
tbtp2384
a(S'/data/ad6813/pipe-data/BlueboxTemp/202730.jpg'
p2385
g3
(g4
(I0
tS'b'
tRp2386
(I1
(I2
tg7
I00
S'\xd0\\\xcc>\x97\xd1\x19?'
tbtp2387
a(S'/data/ad6813/pipe-data/BlueboxTemp/202731.jpg'
p2388
g3
(g4
(I0
tS'b'
tRp2389
(I1
(I2
tg7
I00
S'<3\x00?\x85\x99\xff>'
tbtp2390
a(S'/data/ad6813/pipe-data/BlueboxTemp/202732.jpg'
p2391
g3
(g4
(I0
tS'b'
tRp2392
(I1
(I2
tg7
I00
S'v+\x16?\x15\xa9\xd3>'
tbtp2393
a(S'/data/ad6813/pipe-data/BlueboxTemp/202733.jpg'
p2394
g3
(g4
(I0
tS'b'
tRp2395
(I1
(I2
tg7
I00
S'|}I?\x13\nZ>'
tbtp2396
a(S'/data/ad6813/pipe-data/BlueboxTemp/202744.jpg'
p2397
g3
(g4
(I0
tS'b'
tRp2398
(I1
(I2
tg7
I00
S'\xd1k??^(\x81>'
tbtp2399
a(S'/data/ad6813/pipe-data/BlueboxTemp/202754.jpg'
p2400
g3
(g4
(I0
tS'b'
tRp2401
(I1
(I2
tg7
I00
S'\xe4C\xe1>\x0e^\x0f?'
tbtp2402
a(S'/data/ad6813/pipe-data/BlueboxTemp/202765.jpg'
p2403
g3
(g4
(I0
tS'b'
tRp2404
(I1
(I2
tg7
I00
S']\xeb\xe8>R\x8a\x0b?'
tbtp2405
a(S'/data/ad6813/pipe-data/BlueboxTemp/202770.jpg'
p2406
g3
(g4
(I0
tS'b'
tRp2407
(I1
(I2
tg7
I00
S'\xafG\xdc>)\xdc\x11?'
tbtp2408
a(S'/data/ad6813/pipe-data/BlueboxTemp/202771.jpg'
p2409
g3
(g4
(I0
tS'b'
tRp2410
(I1
(I2
tg7
I00
S'\xe0\xb84?@\x8e\x96>'
tbtp2411
a(S'/data/ad6813/pipe-data/BlueboxTemp/202772.jpg'
p2412
g3
(g4
(I0
tS'b'
tRp2413
(I1
(I2
tg7
I00
S'uY8?\x17M\x8f>'
tbtp2414
a(S'/data/ad6813/pipe-data/BlueboxTemp/202777.jpg'
p2415
g3
(g4
(I0
tS'b'
tRp2416
(I1
(I2
tg7
I00
S'\xe3\xa0#?;\xbe\xb8>'
tbtp2417
a(S'/data/ad6813/pipe-data/BlueboxTemp/202778.jpg'
p2418
g3
(g4
(I0
tS'b'
tRp2419
(I1
(I2
tg7
I00
S'R\xff\x11?^\x01\xdc>'
tbtp2420
a(S'/data/ad6813/pipe-data/BlueboxTemp/202787.jpg'
p2421
g3
(g4
(I0
tS'b'
tRp2422
(I1
(I2
tg7
I00
S'\xd2\x01Z?\xb9\xf8\x17>'
tbtp2423
a(S'/data/ad6813/pipe-data/BlueboxTemp/202798.jpg'
p2424
g3
(g4
(I0
tS'b'
tRp2425
(I1
(I2
tg7
I00
S'\xc0\xc0\xdc>\xa1\x9f\x11?'
tbtp2426
a(S'/data/ad6813/pipe-data/BlueboxTemp/202801.jpg'
p2427
g3
(g4
(I0
tS'b'
tRp2428
(I1
(I2
tg7
I00
S'\x8cOQ?\xd0\xc1:>'
tbtp2429
a(S'/data/ad6813/pipe-data/BlueboxTemp/202802.jpg'
p2430
g3
(g4
(I0
tS'b'
tRp2431
(I1
(I2
tg7
I00
S'LW)?jQ\xad>'
tbtp2432
a(S'/data/ad6813/pipe-data/BlueboxTemp/202806.jpg'
p2433
g3
(g4
(I0
tS'b'
tRp2434
(I1
(I2
tg7
I00
S'aYU?z\x9a*>'
tbtp2435
a(S'/data/ad6813/pipe-data/BlueboxTemp/202809.jpg'
p2436
g3
(g4
(I0
tS'b'
tRp2437
(I1
(I2
tg7
I00
S'yV\x14?\x0fS\xd7>'
tbtp2438
a(S'/data/ad6813/pipe-data/BlueboxTemp/202811.jpg'
p2439
g3
(g4
(I0
tS'b'
tRp2440
(I1
(I2
tg7
I00
S'I\xf4S>\xee\x02K?'
tbtp2441
a(S'/data/ad6813/pipe-data/BlueboxTemp/202813.jpg'
p2442
g3
(g4
(I0
tS'b'
tRp2443
(I1
(I2
tg7
I00
S'\xd2\xde\xae>\x97\x90(?'
tbtp2444
a(S'/data/ad6813/pipe-data/BlueboxTemp/202821.jpg'
p2445
g3
(g4
(I0
tS'b'
tRp2446
(I1
(I2
tg7
I00
S"\xeb\xfe'?*\x02\xb0>"
tbtp2447
a(S'/data/ad6813/pipe-data/BlueboxTemp/202822.jpg'
p2448
g3
(g4
(I0
tS'b'
tRp2449
(I1
(I2
tg7
I00
S'\xf4F\xaa>\x86\xdc*?'
tbtp2450
a(S'/data/ad6813/pipe-data/BlueboxTemp/202829.jpg'
p2451
g3
(g4
(I0
tS'b'
tRp2452
(I1
(I2
tg7
I00
S'\xd5\xd8A?\xad\x9cx>'
tbtp2453
a(S'/data/ad6813/pipe-data/BlueboxTemp/202832.jpg'
p2454
g3
(g4
(I0
tS'b'
tRp2455
(I1
(I2
tg7
I00
S'&\xaa\xfe>\xed\xaa\x00?'
tbtp2456
a(S'/data/ad6813/pipe-data/BlueboxTemp/202833.jpg'
p2457
g3
(g4
(I0
tS'b'
tRp2458
(I1
(I2
tg7
I00
S'\xf49*?\x19\x8c\xab>'
tbtp2459
a(S'/data/ad6813/pipe-data/BlueboxTemp/202834.jpg'
p2460
g3
(g4
(I0
tS'b'
tRp2461
(I1
(I2
tg7
I00
S'\xa7F\xeb>\xac\\\n?'
tbtp2462
a(S'/data/ad6813/pipe-data/BlueboxTemp/202844.jpg'
p2463
g3
(g4
(I0
tS'b'
tRp2464
(I1
(I2
tg7
I00
S'\xe1\xa6\xc9>\x8f,\x1b?'
tbtp2465
a(S'/data/ad6813/pipe-data/BlueboxTemp/202848.jpg'
p2466
g3
(g4
(I0
tS'b'
tRp2467
(I1
(I2
tg7
I00
S'\xd0\xee(?a"\xae>'
tbtp2468
a(S'/data/ad6813/pipe-data/BlueboxTemp/202852.jpg'
p2469
g3
(g4
(I0
tS'b'
tRp2470
(I1
(I2
tg7
I00
S't\x1f7?\x1a\xc1\x91>'
tbtp2471
a(S'/data/ad6813/pipe-data/BlueboxTemp/202853.jpg'
p2472
g3
(g4
(I0
tS'b'
tRp2473
(I1
(I2
tg7
I00
S'\xde\xfb;?C\x08\x88>'
tbtp2474
a(S'/data/ad6813/pipe-data/BlueboxTemp/202856.jpg'
p2475
g3
(g4
(I0
tS'b'
tRp2476
(I1
(I2
tg7
I00
S'\xad\x92\xe6>\xa9\xb6\x0c?'
tbtp2477
a(S'/data/ad6813/pipe-data/BlueboxTemp/202859.jpg'
p2478
g3
(g4
(I0
tS'b'
tRp2479
(I1
(I2
tg7
I00
S'?M\xff>aY\x00?'
tbtp2480
a(S'/data/ad6813/pipe-data/BlueboxTemp/202894.jpg'
p2481
g3
(g4
(I0
tS'b'
tRp2482
(I1
(I2
tg7
I00
S'A\x92%?~\xdb\xb4>'
tbtp2483
a(S'/data/ad6813/pipe-data/BlueboxTemp/202905.jpg'
p2484
g3
(g4
(I0
tS'b'
tRp2485
(I1
(I2
tg7
I00
S'u\xb6O?+&A>'
tbtp2486
a(S'/data/ad6813/pipe-data/BlueboxTemp/202910.jpg'
p2487
g3
(g4
(I0
tS'b'
tRp2488
(I1
(I2
tg7
I00
S'5\x06(?\x94\xf3\xaf>'
tbtp2489
a(S'/data/ad6813/pipe-data/BlueboxTemp/202914.jpg'
p2490
g3
(g4
(I0
tS'b'
tRp2491
(I1
(I2
tg7
I00
S'\x90q\x18?\xe0\x1c\xcf>'
tbtp2492
a(S'/data/ad6813/pipe-data/BlueboxTemp/202917.jpg'
p2493
g3
(g4
(I0
tS'b'
tRp2494
(I1
(I2
tg7
I00
S'k\x0f\xdb>Kx\x12?'
tbtp2495
a(S'/data/ad6813/pipe-data/BlueboxTemp/202925.jpg'
p2496
g3
(g4
(I0
tS'b'
tRp2497
(I1
(I2
tg7
I00
S'\xa3G\xd0>/\xdc\x17?'
tbtp2498
a(S'/data/ad6813/pipe-data/BlueboxTemp/202951.jpg'
p2499
g3
(g4
(I0
tS'b'
tRp2500
(I1
(I2
tg7
I00
S'j\n1?,\xeb\x9d>'
tbtp2501
a(S'/data/ad6813/pipe-data/BlueboxTemp/202957.jpg'
p2502
g3
(g4
(I0
tS'b'
tRp2503
(I1
(I2
tg7
I00
S"\x18\xec\x05?\xd1'\xf4>"
tbtp2504
a(S'/data/ad6813/pipe-data/BlueboxTemp/202962.jpg'
p2505
g3
(g4
(I0
tS'b'
tRp2506
(I1
(I2
tg7
I00
S'!\x95g?\xf0V\xc3='
tbtp2507
a(S'/data/ad6813/pipe-data/BlueboxTemp/202968.jpg'
p2508
g3
(g4
(I0
tS'b'
tRp2509
(I1
(I2
tg7
I00
S'\x05\x8e\x06?\xf3\xe3\xf2>'
tbtp2510
a(S'/data/ad6813/pipe-data/BlueboxTemp/202971.jpg'
p2511
g3
(g4
(I0
tS'b'
tRp2512
(I1
(I2
tg7
I00
S'+1K?X;S>'
tbtp2513
a(S'/data/ad6813/pipe-data/BlueboxTemp/202979.jpg'
p2514
g3
(g4
(I0
tS'b'
tRp2515
(I1
(I2
tg7
I00
S'a\xc6/?>s\xa0>'
tbtp2516
a(S'/data/ad6813/pipe-data/BlueboxTemp/202996.jpg'
p2517
g3
(g4
(I0
tS'b'
tRp2518
(I1
(I2
tg7
I00
S'\x7fR\x06?\x02[\xf3>'
tbtp2519
a(S'/data/ad6813/pipe-data/BlueboxTemp/203005.jpg'
p2520
g3
(g4
(I0
tS'b'
tRp2521
(I1
(I2
tg7
I00
S'\x15\x05g?U\xd7\xc7='
tbtp2522
a(S'/data/ad6813/pipe-data/BlueboxTemp/203025.jpg'
p2523
g3
(g4
(I0
tS'b'
tRp2524
(I1
(I2
tg7
I00
S'\x9dj\x0b?\xc4*\xe9>'
tbtp2525
a(S'/data/ad6813/pipe-data/BlueboxTemp/203033.jpg'
p2526
g3
(g4
(I0
tS'b'
tRp2527
(I1
(I2
tg7
I00
S'K\xdf\xe4>Z\x90\r?'
tbtp2528
a(S'/data/ad6813/pipe-data/BlueboxTemp/203039.jpg'
p2529
g3
(g4
(I0
tS'b'
tRp2530
(I1
(I2
tg7
I00
S'\x14P\xd5>\xf6W\x15?'
tbtp2531
a(S'/data/ad6813/pipe-data/BlueboxTemp/203051.jpg'
p2532
g3
(g4
(I0
tS'b'
tRp2533
(I1
(I2
tg7
I00
S'\xc3i\x04?z,\xf7>'
tbtp2534
a(S'/data/ad6813/pipe-data/BlueboxTemp/203067.jpg'
p2535
g3
(g4
(I0
tS'b'
tRp2536
(I1
(I2
tg7
I00
S':,\xf8>\xe3\xe9\x03?'
tbtp2537
a(S'/data/ad6813/pipe-data/BlueboxTemp/203068.jpg'
p2538
g3
(g4
(I0
tS'b'
tRp2539
(I1
(I2
tg7
I00
S'^\xe4\x1e?D7\xc2>'
tbtp2540
a(S'/data/ad6813/pipe-data/BlueboxTemp/203069.jpg'
p2541
g3
(g4
(I0
tS'b'
tRp2542
(I1
(I2
tg7
I00
S'\x00t\xdc>\x00\xc6\x11?'
tbtp2543
a(S'/data/ad6813/pipe-data/BlueboxTemp/203070.jpg'
p2544
g3
(g4
(I0
tS'b'
tRp2545
(I1
(I2
tg7
I00
S'#\xb1\xdc>n\xa7\x11?'
tbtp2546
a(S'/data/ad6813/pipe-data/BlueboxTemp/203071.jpg'
p2547
g3
(g4
(I0
tS'b'
tRp2548
(I1
(I2
tg7
I00
S'\xb6\xf0&?\x94\x1e\xb2>'
tbtp2549
a(S'/data/ad6813/pipe-data/BlueboxTemp/203072.jpg'
p2550
g3
(g4
(I0
tS'b'
tRp2551
(I1
(I2
tg7
I00
S'K\xa3\xda>Y\xae\x12?'
tbtp2552
a(S'/data/ad6813/pipe-data/BlueboxTemp/203075.jpg'
p2553
g3
(g4
(I0
tS'b'
tRp2554
(I1
(I2
tg7
I00
S'\xf3%\x1f?\x19\xb4\xc1>'
tbtp2555
a(S'/data/ad6813/pipe-data/BlueboxTemp/203080.jpg'
p2556
g3
(g4
(I0
tS'b'
tRp2557
(I1
(I2
tg7
I00
S'g\xe0E?b~h>'
tbtp2558
a(S'/data/ad6813/pipe-data/BlueboxTemp/203083.jpg'
p2559
g3
(g4
(I0
tS'b'
tRp2560
(I1
(I2
tg7
I00
S'(\x99\xff>m3\x00?'
tbtp2561
a(S'/data/ad6813/pipe-data/BlueboxTemp/203085.jpg'
p2562
g3
(g4
(I0
tS'b'
tRp2563
(I1
(I2
tg7
I00
S'H\xfd\r?q\x05\xe4>'
tbtp2564
a(S'/data/ad6813/pipe-data/BlueboxTemp/203095.jpg'
p2565
g3
(g4
(I0
tS'b'
tRp2566
(I1
(I2
tg7
I00
S'._&?\xa5A\xb3>'
tbtp2567
a(S'/data/ad6813/pipe-data/BlueboxTemp/203101.jpg'
p2568
g3
(g4
(I0
tS'b'
tRp2569
(I1
(I2
tg7
I00
S'\x89~\x1b?\xed\x02\xc9>'
tbtp2570
a(S'/data/ad6813/pipe-data/BlueboxTemp/203102.jpg'
p2571
g3
(g4
(I0
tS'b'
tRp2572
(I1
(I2
tg7
I00
S'\x08\xe0\x17?\xf0?\xd0>'
tbtp2573
a(S'/data/ad6813/pipe-data/BlueboxTemp/203104.jpg'
p2574
g3
(g4
(I0
tS'b'
tRp2575
(I1
(I2
tg7
I00
S'\xb3n.?\x9c"\xa3>'
tbtp2576
a(S'/data/ad6813/pipe-data/BlueboxTemp/203105.jpg'
p2577
g3
(g4
(I0
tS'b'
tRp2578
(I1
(I2
tg7
I00
S'f\x84+?5\xf7\xa8>'
tbtp2579
a(S'/data/ad6813/pipe-data/BlueboxTemp/203107.jpg'
p2580
g3
(g4
(I0
tS'b'
tRp2581
(I1
(I2
tg7
I00
S'\xfa\xf0\xc7>\x83\x07\x1c?'
tbtp2582
a(S'/data/ad6813/pipe-data/BlueboxTemp/203108.jpg'
p2583
g3
(g4
(I0
tS'b'
tRp2584
(I1
(I2
tg7
I00
S'\xa4#E?oqk>'
tbtp2585
a(S'/data/ad6813/pipe-data/BlueboxTemp/203110.jpg'
p2586
g3
(g4
(I0
tS'b'
tRp2587
(I1
(I2
tg7
I00
S'\x8c(H?\xd2]_>'
tbtp2588
a(S'/data/ad6813/pipe-data/BlueboxTemp/203116.jpg'
p2589
g3
(g4
(I0
tS'b'
tRp2590
(I1
(I2
tg7
I00
S'F\x0fB?\xe4\xc2w>'
tbtp2591
a(S'/data/ad6813/pipe-data/BlueboxTemp/203119.jpg'
p2592
g3
(g4
(I0
tS'b'
tRp2593
(I1
(I2
tg7
I00
S'\x84\xa3\x15?\xfa\xb8\xd4>'
tbtp2594
a(S'/data/ad6813/pipe-data/BlueboxTemp/203120.jpg'
p2595
g3
(g4
(I0
tS'b'
tRp2596
(I1
(I2
tg7
I00
S'(\x02O?b\xf7C>'
tbtp2597
a(S'/data/ad6813/pipe-data/BlueboxTemp/203125.jpg'
p2598
g3
(g4
(I0
tS'b'
tRp2599
(I1
(I2
tg7
I00
S'\xba\x0fw?_\x04\x0f='
tbtp2600
a(S'/data/ad6813/pipe-data/BlueboxTemp/203131.jpg'
p2601
g3
(g4
(I0
tS'b'
tRp2602
(I1
(I2
tg7
I00
S'\x99\xe1\x0e?\xcf<\xe2>'
tbtp2603
a(S'/data/ad6813/pipe-data/BlueboxTemp/203134.jpg'
p2604
g3
(g4
(I0
tS'b'
tRp2605
(I1
(I2
tg7
I00
S'\xf0\x1b\xed>\tr\t?'
tbtp2606
a(S'/data/ad6813/pipe-data/BlueboxTemp/203137.jpg'
p2607
g3
(g4
(I0
tS'b'
tRp2608
(I1
(I2
tg7
I00
S'+\x15\xe4>j\xf5\r?'
tbtp2609
a(S'/data/ad6813/pipe-data/BlueboxTemp/203144.jpg'
p2610
g3
(g4
(I0
tS'b'
tRp2611
(I1
(I2
tg7
I00
S'1\x1e,?\x9e\xc3\xa7>'
tbtp2612
a(S'/data/ad6813/pipe-data/BlueboxTemp/203147.jpg'
p2613
g3
(g4
(I0
tS'b'
tRp2614
(I1
(I2
tg7
I00
S'\xb4P\x1a?\x9a^\xcb>'
tbtp2615
a(S'/data/ad6813/pipe-data/BlueboxTemp/203149.jpg'
p2616
g3
(g4
(I0
tS'b'
tRp2617
(I1
(I2
tg7
I00
S'\x8e-\xed>9i\t?'
tbtp2618
a(S'/data/ad6813/pipe-data/BlueboxTemp/203150.jpg'
p2619
g3
(g4
(I0
tS'b'
tRp2620
(I1
(I2
tg7
I00
S'\xbe~"?\x84\x02\xbb>'
tbtp2621
a(S'/data/ad6813/pipe-data/BlueboxTemp/203153.jpg'
p2622
g3
(g4
(I0
tS'b'
tRp2623
(I1
(I2
tg7
I00
S'\x13{@?\xb0\x13~>'
tbtp2624
a(S'/data/ad6813/pipe-data/BlueboxTemp/203154.jpg'
p2625
g3
(g4
(I0
tS'b'
tRp2626
(I1
(I2
tg7
I00
S'\x93z\\?\xb3\x15\x0e>'
tbtp2627
a(S'/data/ad6813/pipe-data/BlueboxTemp/203155.jpg'
p2628
g3
(g4
(I0
tS'b'
tRp2629
(I1
(I2
tg7
I00
S'\x8f~\xf6>\xb9\xc0\x04?'
tbtp2630
a(S'/data/ad6813/pipe-data/BlueboxTemp/203157.jpg'
p2631
g3
(g4
(I0
tS'b'
tRp2632
(I1
(I2
tg7
I00
S'!W#?\xbbQ\xb9>'
tbtp2633
a(S'/data/ad6813/pipe-data/BlueboxTemp/203159.jpg'
p2634
g3
(g4
(I0
tS'b'
tRp2635
(I1
(I2
tg7
I00
S'\xf6\xe7\x04?\x160\xf6>'
tbtp2636
a(S'/data/ad6813/pipe-data/BlueboxTemp/203163.jpg'
p2637
g3
(g4
(I0
tS'b'
tRp2638
(I1
(I2
tg7
I00
S'\xa62O?f5C>'
tbtp2639
a(S'/data/ad6813/pipe-data/BlueboxTemp/203166.jpg'
p2640
g3
(g4
(I0
tS'b'
tRp2641
(I1
(I2
tg7
I00
S'\xf8\xd16?\x10\\\x92>'
tbtp2642
a(S'/data/ad6813/pipe-data/BlueboxTemp/203173.jpg'
p2643
g3
(g4
(I0
tS'b'
tRp2644
(I1
(I2
tg7
I00
S'\x19\xb2)?\xce\x9b\xac>'
tbtp2645
a(S'/data/ad6813/pipe-data/BlueboxTemp/203179.jpg'
p2646
g3
(g4
(I0
tS'b'
tRp2647
(I1
(I2
tg7
I00
S'4\x84\t?\x99\xf7\xec>'
tbtp2648
a(S'/data/ad6813/pipe-data/BlueboxTemp/203190.jpg'
p2649
g3
(g4
(I0
tS'b'
tRp2650
(I1
(I2
tg7
I00
S'\xe2,@?yL\x7f>'
tbtp2651
a(S'/data/ad6813/pipe-data/BlueboxTemp/203191.jpg'
p2652
g3
(g4
(I0
tS'b'
tRp2653
(I1
(I2
tg7
I00
S'\x90!\xfa>9\xef\x02?'
tbtp2654
a(S'/data/ad6813/pipe-data/BlueboxTemp/203199.jpg'
p2655
g3
(g4
(I0
tS'b'
tRp2656
(I1
(I2
tg7
I00
S'\x86\x96.?\xf5\xd2\xa2>'
tbtp2657
a(S'/data/ad6813/pipe-data/BlueboxTemp/203206.jpg'
p2658
g3
(g4
(I0
tS'b'
tRp2659
(I1
(I2
tg7
I00
S'\xca\xb3\x14?n\x98\xd6>'
tbtp2660
a(S'/data/ad6813/pipe-data/BlueboxTemp/203207.jpg'
p2661
g3
(g4
(I0
tS'b'
tRp2662
(I1
(I2
tg7
I00
S'\x82\xe4T?\xf8m,>'
tbtp2663
a(S'/data/ad6813/pipe-data/BlueboxTemp/203210.jpg'
p2664
g3
(g4
(I0
tS'b'
tRp2665
(I1
(I2
tg7
I00
S'3\xc2N?6\xf7D>'
tbtp2666
a(S'/data/ad6813/pipe-data/BlueboxTemp/203223.jpg'
p2667
g3
(g4
(I0
tS'b'
tRp2668
(I1
(I2
tg7
I00
S'\x11\x02\xff>\xf7~\x00?'
tbtp2669
a(S'/data/ad6813/pipe-data/BlueboxTemp/203231.jpg'
p2670
g3
(g4
(I0
tS'b'
tRp2671
(I1
(I2
tg7
I00
S'%v"?\xb5\x13\xbb>'
tbtp2672
a(S'/data/ad6813/pipe-data/BlueboxTemp/203236.jpg'
p2673
g3
(g4
(I0
tS'b'
tRp2674
(I1
(I2
tg7
I00
S'\x82\xb5M?\xf6)I>'
tbtp2675
a(S'/data/ad6813/pipe-data/BlueboxTemp/203238.jpg'
p2676
g3
(g4
(I0
tS'b'
tRp2677
(I1
(I2
tg7
I00
S'\xca*\x1b?l\xaa\xc9>'
tbtp2678
a(S'/data/ad6813/pipe-data/BlueboxTemp/203240.jpg'
p2679
g3
(g4
(I0
tS'b'
tRp2680
(I1
(I2
tg7
I00
S'J\x87b?\xb3\xc5\xeb='
tbtp2681
a(S'/data/ad6813/pipe-data/BlueboxTemp/203241.jpg'
p2682
g3
(g4
(I0
tS'b'
tRp2683
(I1
(I2
tg7
I00
S'\x95\xaa6?\xd6\xaa\x92>'
tbtp2684
a(S'/data/ad6813/pipe-data/BlueboxTemp/203242.jpg'
p2685
g3
(g4
(I0
tS'b'
tRp2686
(I1
(I2
tg7
I00
S'-7T?M#/>'
tbtp2687
a(S'/data/ad6813/pipe-data/BlueboxTemp/203247.jpg'
p2688
g3
(g4
(I0
tS'b'
tRp2689
(I1
(I2
tg7
I00
S'r\x08=?\x1a\xef\x85>'
tbtp2690
a(S'/data/ad6813/pipe-data/BlueboxTemp/203251.jpg'
p2691
g3
(g4
(I0
tS'b'
tRp2692
(I1
(I2
tg7
I00
S'\x14\x8e\x16?\xd6\xe3\xd2>'
tbtp2693
a(S'/data/ad6813/pipe-data/BlueboxTemp/203252.jpg'
p2694
g3
(g4
(I0
tS'b'
tRp2695
(I1
(I2
tg7
I00
S"'\xc2\x08?\xb3{\xee>"
tbtp2696
a(S'/data/ad6813/pipe-data/BlueboxTemp/203256.jpg'
p2697
g3
(g4
(I0
tS'b'
tRp2698
(I1
(I2
tg7
I00
S'\x0fc\x0c?\xe49\xe7>'
tbtp2699
a(S'/data/ad6813/pipe-data/BlueboxTemp/203259.jpg'
p2700
g3
(g4
(I0
tS'b'
tRp2701
(I1
(I2
tg7
I00
S'w\x13\xa6>D\xf6,?'
tbtp2702
a(S'/data/ad6813/pipe-data/BlueboxTemp/203266.jpg'
p2703
g3
(g4
(I0
tS'b'
tRp2704
(I1
(I2
tg7
I00
S'P,O?\xc0NC>'
tbtp2705
a(S'/data/ad6813/pipe-data/BlueboxTemp/203275.jpg'
p2706
g3
(g4
(I0
tS'b'
tRp2707
(I1
(I2
tg7
I00
S'\x8b\xb9q?Vgd='
tbtp2708
a(S'/data/ad6813/pipe-data/BlueboxTemp/203281.jpg'
p2709
g3
(g4
(I0
tS'b'
tRp2710
(I1
(I2
tg7
I00
S'\xd4b\x08?X:\xef>'
tbtp2711
a(S'/data/ad6813/pipe-data/BlueboxTemp/203287.jpg'
p2712
g3
(g4
(I0
tS'b'
tRp2713
(I1
(I2
tg7
I00
S'\xf4>\xd8>\x87\xe0\x13?'
tbtp2714
a(S'/data/ad6813/pipe-data/BlueboxTemp/203289.jpg'
p2715
g3
(g4
(I0
tS'b'
tRp2716
(I1
(I2
tg7
I00
S'\xa6{\xe3>-B\x0e?'
tbtp2717
a(S'/data/ad6813/pipe-data/BlueboxTemp/203290.jpg'
p2718
g3
(g4
(I0
tS'b'
tRp2719
(I1
(I2
tg7
I00
S'\xf3\x01\x1b?\x1b\xfc\xc9>'
tbtp2720
a(S'/data/ad6813/pipe-data/BlueboxTemp/203300.jpg'
p2721
g3
(g4
(I0
tS'b'
tRp2722
(I1
(I2
tg7
I00
S'n\xba\x8c>\xc8\xa29?'
tbtp2723
a(S'/data/ad6813/pipe-data/BlueboxTemp/203306.jpg'
p2724
g3
(g4
(I0
tS'b'
tRp2725
(I1
(I2
tg7
I00
S'\t\x9a\xf6>\xfc\xb2\x04?'
tbtp2726
a(S'/data/ad6813/pipe-data/BlueboxTemp/203313.jpg'
p2727
g3
(g4
(I0
tS'b'
tRp2728
(I1
(I2
tg7
I00
S'\xe3w\x04>\x07\xe2^?'
tbtp2729
a(S'/data/ad6813/pipe-data/BlueboxTemp/203314.jpg'
p2730
g3
(g4
(I0
tS'b'
tRp2731
(I1
(I2
tg7
I00
S'`g:?@1\x8b>'
tbtp2732
a(S'/data/ad6813/pipe-data/BlueboxTemp/203341.jpg'
p2733
g3
(g4
(I0
tS'b'
tRp2734
(I1
(I2
tg7
I00
S'\xc8m!?m$\xbd>'
tbtp2735
a(S'/data/ad6813/pipe-data/BlueboxTemp/203343.jpg'
p2736
g3
(g4
(I0
tS'b'
tRp2737
(I1
(I2
tg7
I00
S',D%?\xa8w\xb5>'
tbtp2738
a(S'/data/ad6813/pipe-data/BlueboxTemp/203345.jpg'
p2739
g3
(g4
(I0
tS'b'
tRp2740
(I1
(I2
tg7
I00
S'\xed\xb78?$\x90\x8e>'
tbtp2741
a(S'/data/ad6813/pipe-data/BlueboxTemp/203347.jpg'
p2742
g3
(g4
(I0
tS'b'
tRp2743
(I1
(I2
tg7
I00
S'\x18\x86_?\xa3\xe7\x01>'
tbtp2744
a(S'/data/ad6813/pipe-data/BlueboxTemp/203367.jpg'
p2745
g3
(g4
(I0
tS'b'
tRp2746
(I1
(I2
tg7
I00
S'd\x8e ?8\xe3\xbe>'
tbtp2747
a(S'/data/ad6813/pipe-data/BlueboxTemp/203380.jpg'
p2748
g3
(g4
(I0
tS'b'
tRp2749
(I1
(I2
tg7
I00
S',aq?2\xedi='
tbtp2750
a(S'/data/ad6813/pipe-data/BlueboxTemp/203382.jpg'
p2751
g3
(g4
(I0
tS'b'
tRp2752
(I1
(I2
tg7
I00
S'\xf8\xaa\xf4>\x85\xaa\x05?'
tbtp2753
a(S'/data/ad6813/pipe-data/BlueboxTemp/203392.jpg'
p2754
g3
(g4
(I0
tS'b'
tRp2755
(I1
(I2
tg7
I00
S'\xed\xb0\xe0>\x8a\xa7\x0f?'
tbtp2756
a(S'/data/ad6813/pipe-data/BlueboxTemp/203399.jpg'
p2757
g3
(g4
(I0
tS'b'
tRp2758
(I1
(I2
tg7
I00
S'S\x07>?Y\xf1\x83>'
tbtp2759
a(S'/data/ad6813/pipe-data/BlueboxTemp/203415.jpg'
p2760
g3
(g4
(I0
tS'b'
tRp2761
(I1
(I2
tg7
I00
S'B\xd6\xe7>\xdf\x14\x0c?'
tbtp2762
a(S'/data/ad6813/pipe-data/BlueboxTemp/203421.jpg'
p2763
g3
(g4
(I0
tS'b'
tRp2764
(I1
(I2
tg7
I00
S'\x05\xfeW?\xea\x07 >'
tbtp2765
a(S'/data/ad6813/pipe-data/BlueboxTemp/203426.jpg'
p2766
g3
(g4
(I0
tS'b'
tRp2767
(I1
(I2
tg7
I00
S'\xccs\xc5>\x1aF\x1d?'
tbtp2768
a(S'/data/ad6813/pipe-data/BlueboxTemp/203432.jpg'
p2769
g3
(g4
(I0
tS'b'
tRp2770
(I1
(I2
tg7
I00
S'~h\n?\x05/\xeb>'
tbtp2771
a(S'/data/ad6813/pipe-data/BlueboxTemp/203436.jpg'
p2772
g3
(g4
(I0
tS'b'
tRp2773
(I1
(I2
tg7
I00
S'SI\x1d?\\m\xc5>'
tbtp2774
a(S'/data/ad6813/pipe-data/BlueboxTemp/203441.jpg'
p2775
g3
(g4
(I0
tS'b'
tRp2776
(I1
(I2
tg7
I00
S"\x90'>?\xdf\xb0\x83>"
tbtp2777
a(S'/data/ad6813/pipe-data/BlueboxTemp/203442.jpg'
p2778
g3
(g4
(I0
tS'b'
tRp2779
(I1
(I2
tg7
I00
S'H\x90\xf6>\xdd\xb7\x04?'
tbtp2780
a(S'/data/ad6813/pipe-data/BlueboxTemp/203447.jpg'
p2781
g3
(g4
(I0
tS'b'
tRp2782
(I1
(I2
tg7
I00
S'\x8a\x077?\xec\xf0\x91>'
tbtp2783
a(S'/data/ad6813/pipe-data/BlueboxTemp/203449.jpg'
p2784
g3
(g4
(I0
tS'b'
tRp2785
(I1
(I2
tg7
I00
S'\x1d\xf5\xd8>q\x85\x13?'
tbtp2786
a(S'/data/ad6813/pipe-data/BlueboxTemp/203455.jpg'
p2787
g3
(g4
(I0
tS'b'
tRp2788
(I1
(I2
tg7
I00
S'\xd1\x8d\x10?^\xe4\xde>'
tbtp2789
a(S'/data/ad6813/pipe-data/BlueboxTemp/203461.jpg'
p2790
g3
(g4
(I0
tS'b'
tRp2791
(I1
(I2
tg7
I00
S'z\xee9?\r#\x8c>'
tbtp2792
a(S'/data/ad6813/pipe-data/BlueboxTemp/203472.jpg'
p2793
g3
(g4
(I0
tS'b'
tRp2794
(I1
(I2
tg7
I00
S'r\xb10?\x1a\x9d\x9e>'
tbtp2795
a(S'/data/ad6813/pipe-data/BlueboxTemp/203473.jpg'
p2796
g3
(g4
(I0
tS'b'
tRp2797
(I1
(I2
tg7
I00
S'\x9b\r\xd3>3y\x16?'
tbtp2798
a(S'/data/ad6813/pipe-data/BlueboxTemp/203480.jpg'
p2799
g3
(g4
(I0
tS'b'
tRp2800
(I1
(I2
tg7
I00
S'\xb0\x7f%?\xa2\x00\xb5>'
tbtp2801
a(S'/data/ad6813/pipe-data/BlueboxTemp/203481.jpg'
p2802
g3
(g4
(I0
tS'b'
tRp2803
(I1
(I2
tg7
I00
S'\xb6\xc5*?\x93t\xaa>'
tbtp2804
a(S'/data/ad6813/pipe-data/BlueboxTemp/203484.jpg'
p2805
g3
(g4
(I0
tS'b'
tRp2806
(I1
(I2
tg7
I00
S'\xd8\x0e^?\xa3\xc4\x07>'
tbtp2807
a(S'/data/ad6813/pipe-data/BlueboxTemp/203495.jpg'
p2808
g3
(g4
(I0
tS'b'
tRp2809
(I1
(I2
tg7
I00
S'\x1dk\xec>r\xca\t?'
tbtp2810
a(S'/data/ad6813/pipe-data/BlueboxTemp/203497.jpg'
p2811
g3
(g4
(I0
tS'b'
tRp2812
(I1
(I2
tg7
I00
S'4n\x02?\x99#\xfb>'
tbtp2813
a(S'/data/ad6813/pipe-data/BlueboxTemp/203516.jpg'
p2814
g3
(g4
(I0
tS'b'
tRp2815
(I1
(I2
tg7
I00
S'\xb9\x1b\x1c?\x8d\xc8\xc7>'
tbtp2816
a(S'/data/ad6813/pipe-data/BlueboxTemp/203517.jpg'
p2817
g3
(g4
(I0
tS'b'
tRp2818
(I1
(I2
tg7
I00
S'\xf6\xb15?\x14\x9c\x94>'
tbtp2819
a(S'/data/ad6813/pipe-data/BlueboxTemp/42875.jpg'
p2820
g3
(g4
(I0
tS'b'
tRp2821
(I1
(I2
tg7
I00
S'~J\r?\x04k\xe5>'
tbtp2822
a(S'/data/ad6813/pipe-data/BlueboxTemp/42951.jpg'
p2823
g3
(g4
(I0
tS'b'
tRp2824
(I1
(I2
tg7
I00
S'*\x17\xa1>jt/?'
tbtp2825
a(S'/data/ad6813/pipe-data/BlueboxTemp/65070.jpg'
p2826
g3
(g4
(I0
tS'b'
tRp2827
(I1
(I2
tg7
I00
S'\xaa\xe5e>\x95\x86F?'
tbtp2828
a(S'/data/ad6813/pipe-data/BlueboxTemp/65076.jpg'
p2829
g3
(g4
(I0
tS'b'
tRp2830
(I1
(I2
tg7
I00
S'\x0f\t\xa5>x{-?'
tbtp2831
a(S'/data/ad6813/pipe-data/BlueboxTemp/65104.jpg'
p2832
g3
(g4
(I0
tS'b'
tRp2833
(I1
(I2
tg7
I00
S'\xba\x1f\x01?\x8c\xc0\xfd>'
tbtp2834
a(S'/data/ad6813/pipe-data/BlueboxTemp/67037.jpg'
p2835
g3
(g4
(I0
tS'b'
tRp2836
(I1
(I2
tg7
I00
S'\xdd\xd9\xb6>\x11\x93$?'
tbtp2837
a(S'/data/ad6813/pipe-data/BlueboxTemp/71396.jpg'
p2838
g3
(g4
(I0
tS'b'
tRp2839
(I1
(I2
tg7
I00
S'\x0c\xd7\x1b>>\nY?'
tbtp2840
a(S'/data/ad6813/pipe-data/BlueboxTemp/71398.jpg'
p2841
g3
(g4
(I0
tS'b'
tRp2842
(I1
(I2
tg7
I00
S'\x1a\xd4^>\xf9JH?'
tbtp2843
a(S'/data/ad6813/pipe-data/BlueboxTemp/79024.jpg'
p2844
g3
(g4
(I0
tS'b'
tRp2845
(I1
(I2
tg7
I00
S'\xba*\xcb>\xa3j\x1a?'
tbtp2846
a(S'/data/ad6813/pipe-data/BlueboxTemp/79025.jpg'
p2847
g3
(g4
(I0
tS'b'
tRp2848
(I1
(I2
tg7
I00
S'\x11\x11\x8f>xw8?'
tbtp2849
a(S'/data/ad6813/pipe-data/BlueboxTemp/80117.jpg'
p2850
g3
(g4
(I0
tS'b'
tRp2851
(I1
(I2
tg7
I00
S'\xa6|\xac>\xad\xc1)?'
tbtp2852
a(S'/data/ad6813/pipe-data/BlueboxTemp/81736.jpg'
p2853
g3
(g4
(I0
tS'b'
tRp2854
(I1
(I2
tg7
I00
S'\x88Px>\xdd\xebA?'
tbtp2855
a(S'/data/ad6813/pipe-data/BlueboxTemp/81737.jpg'
p2856
g3
(g4
(I0
tS'b'
tRp2857
(I1
(I2
tg7
I00
S'"\xe9\xfd>o\x0b\x01?'
tbtp2858
a(S'/data/ad6813/pipe-data/BlueboxTemp/82114.jpg'
p2859
g3
(g4
(I0
tS'b'
tRp2860
(I1
(I2
tg7
I00
S'e\xd4\x13?6W\xd8>'
tbtp2861
a(S'/data/ad6813/pipe-data/BlueboxTemp/82310.jpg'
p2862
g3
(g4
(I0
tS'b'
tRp2863
(I1
(I2
tg7
I00
S'\x13\x92\x0f?\xda\xdb\xe0>'
tbtp2864
a(S'/data/ad6813/pipe-data/BlueboxTemp/91278.jpg'
p2865
g3
(g4
(I0
tS'b'
tRp2866
(I1
(I2
tg7
I00
S'\xd9v\xf8>\x93\xc4\x03?'
tbtp2867
a(S'/data/ad6813/pipe-data/BlueboxTemp/92417.jpg'
p2868
g3
(g4
(I0
tS'b'
tRp2869
(I1
(I2
tg7
I00
S'\xb4\xf4\xf2=j\xa1a?'
tbtp2870
a(S'/data/ad6813/pipe-data/BlueboxTemp/92428.jpg'
p2871
g3
(g4
(I0
tS'b'
tRp2872
(I1
(I2
tg7
I00
S'\xc8m!>\x8e\xa4W?'
tbtp2873
a(S'/data/ad6813/pipe-data/BlueboxTemp/92517.jpg'
p2874
g3
(g4
(I0
tS'b'
tRp2875
(I1
(I2
tg7
I00
S'\xd9T\xaf>\x93U(?'
tbtp2876
a(S'/data/ad6813/pipe-data/BlueboxTemp/92676.jpg'
p2877
g3
(g4
(I0
tS'b'
tRp2878
(I1
(I2
tg7
I00
S'V9\xe7>Uc\x0c?'
tbtp2879
a(S'/data/ad6813/pipe-data/BlueboxTemp/93164.jpg'
p2880
g3
(g4
(I0
tS'b'
tRp2881
(I1
(I2
tg7
I00
S'\x9a\x100>\xd9\xfbS?'
tbtp2882
a(S'/data/ad6813/pipe-data/BlueboxTemp/93214.jpg'
p2883
g3
(g4
(I0
tS'b'
tRp2884
(I1
(I2
tg7
I00
S'\x96^\x99>\xb6P3?'
tbtp2885
a(S'/data/ad6813/pipe-data/BlueboxTemp/93235.jpg'
p2886
g3
(g4
(I0
tS'b'
tRp2887
(I1
(I2
tg7
I00
S'O\x9c\x90>\xd8\xb17?'
tbtp2888
a(S'/data/ad6813/pipe-data/BlueboxTemp/93393.jpg'
p2889
g3
(g4
(I0
tS'b'
tRp2890
(I1
(I2
tg7
I00
S'/\xa4\x03>\xf4\x16_?'
tbtp2891
a(S'/data/ad6813/pipe-data/BlueboxTemp/94478.jpg'
p2892
g3
(g4
(I0
tS'b'
tRp2893
(I1
(I2
tg7
I00
S'r\x06\xd9>\xc7|\x13?'
tbtp2894
a(S'/data/ad6813/pipe-data/BlueboxTemp/94505.jpg'
p2895
g3
(g4
(I0
tS'b'
tRp2896
(I1
(I2
tg7
I00
S'\x1f\x81=>\xb8\x9fP?'
tbtp2897
a(S'/data/ad6813/pipe-data/BlueboxTemp/94659.jpg'
p2898
g3
(g4
(I0
tS'b'
tRp2899
(I1
(I2
tg7
I00
S'\xbd\xcaw>Q\rB?'
tbtp2900
a(S'/data/ad6813/pipe-data/BlueboxTemp/94697.jpg'
p2901
g3
(g4
(I0
tS'b'
tRp2902
(I1
(I2
tg7
I00
S'\xb5qt>\x92\xe3B?'
tbtp2903
a(S'/data/ad6813/pipe-data/BlueboxTemp/94699.jpg'
p2904
g3
(g4
(I0
tS'b'
tRp2905
(I1
(I2
tg7
I00
S'\x0cya>\xbd\xa1G?'
tbtp2906
a(S'/data/ad6813/pipe-data/BlueboxTemp/94723.jpg'
p2907
g3
(g4
(I0
tS'b'
tRp2908
(I1
(I2
tg7
I00
S'\xaf\x9a\xb8>\xa8\xb2#?'
tbtp2909
a(S'/data/ad6813/pipe-data/BlueboxTemp/95083.jpg'
p2910
g3
(g4
(I0
tS'b'
tRp2911
(I1
(I2
tg7
I00
S'\\<\xb3>\xd2a&?'
tbtp2912
a(S'/data/ad6813/pipe-data/BlueboxTemp/95107.jpg'
p2913
g3
(g4
(I0
tS'b'
tRp2914
(I1
(I2
tg7
I00
S'\xb9\x93\x81>#6??'
tbtp2915
a(S'/data/ad6813/pipe-data/BlueboxTemp/95130.jpg'
p2916
g3
(g4
(I0
tS'b'
tRp2917
(I1
(I2
tg7
I00
S'i\x0c\xab>\xcay*?'
tbtp2918
a(S'/data/ad6813/pipe-data/BlueboxTemp/95193.jpg'
p2919
g3
(g4
(I0
tS'b'
tRp2920
(I1
(I2
tg7
I00
S'\xf7\x80\x1d>\xc2\x9fX?'
tbtp2921
a(S'/data/ad6813/pipe-data/BlueboxTemp/95787.jpg'
p2922
g3
(g4
(I0
tS'b'
tRp2923
(I1
(I2
tg7
I00
S'\xc9\re>\x8e\xbcF?'
tbtp2924
a(S'/data/ad6813/pipe-data/BlueboxTemp/96050.jpg'
p2925
g3
(g4
(I0
tS'b'
tRp2926
(I1
(I2
tg7
I00
S'\xa4>B>WpO?'
tbtp2927
a(S'/data/ad6813/pipe-data/BlueboxTemp/96300.jpg'
p2928
g3
(g4
(I0
tS'b'
tRp2929
(I1
(I2
tg7
I00
S'8D\x89>\xe5];?'
tbtp2930
a(S'/data/ad6813/pipe-data/BlueboxTemp/96303.jpg'
p2931
g3
(g4
(I0
tS'b'
tRp2932
(I1
(I2
tg7
I00
S'H\xc0l=\xfc3q?'
tbtp2933
a(S'/data/ad6813/pipe-data/BlueboxTemp/96342.jpg'
p2934
g3
(g4
(I0
tS'b'
tRp2935
(I1
(I2
tg7
I00
S'\x18Y\xfc=\xdct`?'
tbtp2936
a(S'/data/ad6813/pipe-data/BlueboxTemp/96545.jpg'
p2937
g3
(g4
(I0
tS'b'
tRp2938
(I1
(I2
tg7
I00
S'\xae\x03\xc2>)\xfe\x1e?'
tbtp2939
a(S'/data/ad6813/pipe-data/BlueboxTemp/96558.jpg'
p2940
g3
(g4
(I0
tS'b'
tRp2941
(I1
(I2
tg7
I00
S'\xb0j4>S\xe5R?'
tbtp2942
a(S'/data/ad6813/pipe-data/BlueboxTemp/96640.jpg'
p2943
g3
(g4
(I0
tS'b'
tRp2944
(I1
(I2
tg7
I00
S'j\xc5\x93>L\x1d6?'
tbtp2945
a(S'/data/ad6813/pipe-data/BlueboxTemp/96650.jpg'
p2946
g3
(g4
(I0
tS'b'
tRp2947
(I1
(I2
tg7
I00
S't\x1e\x94>\xc6\xf05?'
tbtp2948
a(S'/data/ad6813/pipe-data/BlueboxTemp/96716.jpg'
p2949
g3
(g4
(I0
tS'b'
tRp2950
(I1
(I2
tg7
I00
S'\xf9\x83\xe6>\x03\xbe\x0c?'
tbtp2951
a(S'/data/ad6813/pipe-data/BlueboxTemp/96791.jpg'
p2952
g3
(g4
(I0
tS'b'
tRp2953
(I1
(I2
tg7
I00
S'\x15\xec}>\xfb\x84@?'
tbtp2954
a(S'/data/ad6813/pipe-data/BlueboxTemp/96882.jpg'
p2955
g3
(g4
(I0
tS'b'
tRp2956
(I1
(I2
tg7
I00
S'\xe1\x01B=\xe2\xdfs?'
tbtp2957
a(S'/data/ad6813/pipe-data/BlueboxTemp/96924.jpg'
p2958
g3
(g4
(I0
tS'b'
tRp2959
(I1
(I2
tg7
I00
S'_k\xe0>P\xca\x0f?'
tbtp2960
a(S'/data/ad6813/pipe-data/BlueboxTemp/96944.jpg'
p2961
g3
(g4
(I0
tS'b'
tRp2962
(I1
(I2
tg7
I00
S'\xe9\x98\xc5>\x8c3\x1d?'
tbtp2963
a(S'/data/ad6813/pipe-data/BlueboxTemp/97183.jpg'
p2964
g3
(g4
(I0
tS'b'
tRp2965
(I1
(I2
tg7
I00
S'm\x9a\xab>\xca2*?'
tbtp2966
a(S'/data/ad6813/pipe-data/BlueboxTemp/97200.jpg'
p2967
g3
(g4
(I0
tS'b'
tRp2968
(I1
(I2
tg7
I00
S'(\x97\xc6>l\xb4\x1c?'
tbtp2969
a(S'/data/ad6813/pipe-data/BlueboxTemp/97297.jpg'
p2970
g3
(g4
(I0
tS'b'
tRp2971
(I1
(I2
tg7
I00
S'\x1e\x06d>y\xfeF?'
tbtp2972
a(S'/data/ad6813/pipe-data/BlueboxTemp/97376.jpg'
p2973
g3
(g4
(I0
tS'b'
tRp2974
(I1
(I2
tg7
I00
S'\xcb\n\xc9>\x9az\x1b?'
tbtp2975
a(S'/data/ad6813/pipe-data/BlueboxTemp/97474.jpg'
p2976
g3
(g4
(I0
tS'b'
tRp2977
(I1
(I2
tg7
I00
S'uEB>\xa3nO?'
tbtp2978
a(S'/data/ad6813/pipe-data/BlueboxTemp/97477.jpg'
p2979
g3
(g4
(I0
tS'b'
tRp2980
(I1
(I2
tg7
I00
S'\xb2\x06G>T>N?'
tbtp2981
a(S'/data/ad6813/pipe-data/BlueboxTemp/97480.jpg'
p2982
g3
(g4
(I0
tS'b'
tRp2983
(I1
(I2
tg7
I00
S'\xc4\xdf\n?v@\xea>'
tbtp2984
a(S'/data/ad6813/pipe-data/BlueboxTemp/98022.jpg'
p2985
g3
(g4
(I0
tS'b'
tRp2986
(I1
(I2
tg7
I00
S'\x93z\xdc>\xb7\xc2\x11?'
tbtp2987
a(S'/data/ad6813/pipe-data/BlueboxTemp/98040.jpg'
p2988
g3
(g4
(I0
tS'b'
tRp2989
(I1
(I2
tg7
I00
S'\xca\xc6\x04?nr\xf6>'
tbtp2990
a(S'/data/ad6813/pipe-data/BlueboxTemp/98043.jpg'
p2991
g3
(g4
(I0
tS'b'
tRp2992
(I1
(I2
tg7
I00
S'\xf7ZC?)\x94r>'
tbtp2993
a(S'/data/ad6813/pipe-data/BlueboxTemp/98254.jpg'
p2994
g3
(g4
(I0
tS'b'
tRp2995
(I1
(I2
tg7
I00
S'@\xf2\x04?~\x1b\xf6>'
tbtp2996
a(S'/data/ad6813/pipe-data/BlueboxTemp/98369.jpg'
p2997
g3
(g4
(I0
tS'b'
tRp2998
(I1
(I2
tg7
I00
S'\xf2m\x95>\x07I5?'
tbtp2999
a(S'/data/ad6813/pipe-data/BlueboxTemp/98414.jpg'
p3000
g3
(g4
(I0
tS'b'
tRp3001
(I1
(I2
tg7
I00
S'\xd9\x98\xc8>\x93\xb3\x1b?'
tbtp3002
a(S'/data/ad6813/pipe-data/BlueboxTemp/99924.jpg'
p3003
g3
(g4
(I0
tS'b'
tRp3004
(I1
(I2
tg7
I00
S'`$\x07?C\xb7\xf1>'
tbtp3005
a.