(lp1
(S'/data/ad6813/pipe-data/Blue100/198098.jpg'
p2
cnumpy.core.multiarray
_reconstruct
p3
(cnumpy
ndarray
p4
(I0
tS'b'
tRp5
(I1
(I2
tcnumpy
dtype
p6
(S'f4'
I0
I1
tRp7
(I3
S'<'
NNNI-1
I-1
I0
tbI00
S'\xf0\xac+?\x1e\xa6\xa8>'
tbtp8
a(S'/data/ad6813/pipe-data/Blue100/198107.jpg'
p9
g3
(g4
(I0
tS'b'
tRp10
(I1
(I2
tg7
I00
S'Bxh?\xf6=\xbc='
tbtp11
a(S'/data/ad6813/pipe-data/Blue100/198117.jpg'
p12
g3
(g4
(I0
tS'b'
tRp13
(I1
(I2
tg7
I00
S'\xae\x8az?\x1e\xaa\xae<'
tbtp14
a(S'/data/ad6813/pipe-data/Blue100/198118.jpg'
p15
g3
(g4
(I0
tS'b'
tRp16
(I1
(I2
tg7
I00
S'+ul?\x94V\x9c='
tbtp17
a(S'/data/ad6813/pipe-data/Blue100/198121.jpg'
p18
g3
(g4
(I0
tS'b'
tRp19
(I1
(I2
tg7
I00
S'\xa6\x89r?\xb6eW='
tbtp20
a(S'/data/ad6813/pipe-data/Blue100/198122.jpg'
p21
g3
(g4
(I0
tS'b'
tRp22
(I1
(I2
tg7
I00
S'\xe0\xf9o?\x051\x80='
tbtp23
a(S'/data/ad6813/pipe-data/Blue100/198132.jpg'
p24
g3
(g4
(I0
tS'b'
tRp25
(I1
(I2
tg7
I00
S'\xfe\x94\x7f?\x8d\x03\xd6:'
tbtp26
a(S'/data/ad6813/pipe-data/Blue100/198134.jpg'
p27
g3
(g4
(I0
tS'b'
tRp28
(I1
(I2
tg7
I00
S'RB\x7f?E\xac=;'
tbtp29
a(S'/data/ad6813/pipe-data/Blue100/198140.jpg'
p30
g3
(g4
(I0
tS'b'
tRp31
(I1
(I2
tg7
I00
S'\x82\xef{?\xb3\x0f\x82<'
tbtp32
a(S'/data/ad6813/pipe-data/Blue100/198143.jpg'
p33
g3
(g4
(I0
tS'b'
tRp34
(I1
(I2
tg7
I00
S'\x1e0w?*\xfe\x0c='
tbtp35
a(S'/data/ad6813/pipe-data/Blue100/198164.jpg'
p36
g3
(g4
(I0
tS'b'
tRp37
(I1
(I2
tg7
I00
S'\x15\xc4Y?\xa6\xef\x18>'
tbtp38
a(S'/data/ad6813/pipe-data/Blue100/198170.jpg'
p39
g3
(g4
(I0
tS'b'
tRp40
(I1
(I2
tg7
I00
S'p\x96r?\n\x99V='
tbtp41
a(S'/data/ad6813/pipe-data/Blue100/198174.jpg'
p42
g3
(g4
(I0
tS'b'
tRp43
(I1
(I2
tg7
I00
S'\\\xceK?\x98\xc6P>'
tbtp44
a(S'/data/ad6813/pipe-data/Blue100/198176.jpg'
p45
g3
(g4
(I0
tS'b'
tRp46
(I1
(I2
tg7
I00
S'8\x94|?%\xf2Z<'
tbtp47
a(S'/data/ad6813/pipe-data/Blue100/198183.jpg'
p48
g3
(g4
(I0
tS'b'
tRp49
(I1
(I2
tg7
I00
S':\xc5~?\x1ed\x9d;'
tbtp50
a(S'/data/ad6813/pipe-data/Blue100/198190.jpg'
p51
g3
(g4
(I0
tS'b'
tRp52
(I1
(I2
tg7
I00
S'\xc2\x93o?\x03b\x83='
tbtp53
a(S'/data/ad6813/pipe-data/Blue100/198210.jpg'
p54
g3
(g4
(I0
tS'b'
tRp55
(I1
(I2
tg7
I00
S'O\x892?b\xed\x9a>'
tbtp56
a(S'/data/ad6813/pipe-data/Blue100/198211.jpg'
p57
g3
(g4
(I0
tS'b'
tRp58
(I1
(I2
tg7
I00
S'ON\x1e?bc\xc3>'
tbtp59
a(S'/data/ad6813/pipe-data/Blue100/198214.jpg'
p60
g3
(g4
(I0
tS'b'
tRp61
(I1
(I2
tg7
I00
S'\x8a\x84Q?\xd2\xed9>'
tbtp62
a(S'/data/ad6813/pipe-data/Blue100/198215.jpg'
p63
g3
(g4
(I0
tS'b'
tRp64
(I1
(I2
tg7
I00
S' \xc6z?\xf3;\xa7<'
tbtp65
a(S'/data/ad6813/pipe-data/Blue100/198218.jpg'
p66
g3
(g4
(I0
tS'b'
tRp67
(I1
(I2
tg7
I00
S'\x06\x9ax?\xfa\xbe\xec<'
tbtp68
a(S'/data/ad6813/pipe-data/Blue100/198219.jpg'
p69
g3
(g4
(I0
tS'b'
tRp70
(I1
(I2
tg7
I00
S'\x08\xe9[?\xea[\x10>'
tbtp71
a(S'/data/ad6813/pipe-data/Blue100/198222.jpg'
p72
g3
(g4
(I0
tS'b'
tRp73
(I1
(I2
tg7
I00
S'\x925\t?\xd6\x94\xed>'
tbtp74
a(S'/data/ad6813/pipe-data/Blue100/198223.jpg'
p75
g3
(g4
(I0
tS'b'
tRp76
(I1
(I2
tg7
I00
S'.K\x10?\xa2i\xdf>'
tbtp77
a(S'/data/ad6813/pipe-data/Blue100/198226.jpg'
p78
g3
(g4
(I0
tS'b'
tRp79
(I1
(I2
tg7
I00
S'8H;?\x8eo\x89>'
tbtp80
a(S'/data/ad6813/pipe-data/Blue100/198228.jpg'
p81
g3
(g4
(I0
tS'b'
tRp82
(I1
(I2
tg7
I00
S'\xde\xaaY?\x88T\x19>'
tbtp83
a(S'/data/ad6813/pipe-data/Blue100/198229.jpg'
p84
g3
(g4
(I0
tS'b'
tRp85
(I1
(I2
tg7
I00
S'\xad\xf3j?\xa2b\xa8='
tbtp86
a(S'/data/ad6813/pipe-data/Blue100/198239.jpg'
p87
g3
(g4
(I0
tS'b'
tRp88
(I1
(I2
tg7
I00
S'F\xf9n?\xcf5\x88='
tbtp89
a(S'/data/ad6813/pipe-data/Blue100/198242.jpg'
p90
g3
(g4
(I0
tS'b'
tRp91
(I1
(I2
tg7
I00
S'\xd0\xa0\x7f?Na\xbe:'
tbtp92
a(S'/data/ad6813/pipe-data/Blue100/198245.jpg'
p93
g3
(g4
(I0
tS'b'
tRp94
(I1
(I2
tg7
I00
S'\x86\xbdy?&O\xc8<'
tbtp95
a(S'/data/ad6813/pipe-data/Blue100/198249.jpg'
p96
g3
(g4
(I0
tS'b'
tRp97
(I1
(I2
tg7
I00
S'\xb3\xd3f?db\xc9='
tbtp98
a(S'/data/ad6813/pipe-data/Blue100/198262.jpg'
p99
g3
(g4
(I0
tS'b'
tRp100
(I1
(I2
tg7
I00
S'>O|?\xd6/l<'
tbtp101
a(S'/data/ad6813/pipe-data/Blue100/198265.jpg'
p102
g3
(g4
(I0
tS'b'
tRp103
(I1
(I2
tg7
I00
S'r\x9f~?lH\xb0;'
tbtp104
a(S'/data/ad6813/pipe-data/Blue100/198270.jpg'
p105
g3
(g4
(I0
tS'b'
tRp106
(I1
(I2
tg7
I00
S'\xb0\xbb\x7f?\xe1\x9f\x88:'
tbtp107
a(S'/data/ad6813/pipe-data/Blue100/198271.jpg'
p108
g3
(g4
(I0
tS'b'
tRp109
(I1
(I2
tg7
I00
S'p\x9ef?\x81\x0c\xcb='
tbtp110
a(S'/data/ad6813/pipe-data/Blue100/198280.jpg'
p111
g3
(g4
(I0
tS'b'
tRp112
(I1
(I2
tg7
I00
S'\xa3\xd1h?\xdar\xb9='
tbtp113
a(S'/data/ad6813/pipe-data/Blue100/198291.jpg'
p114
g3
(g4
(I0
tS'b'
tRp115
(I1
(I2
tg7
I00
S'"\x8aR?{\xd75>'
tbtp116
a(S'/data/ad6813/pipe-data/Blue100/198297.jpg'
p117
g3
(g4
(I0
tS'b'
tRp118
(I1
(I2
tg7
I00
S'}ky?%\x90\xd2<'
tbtp119
a(S'/data/ad6813/pipe-data/Blue100/198307.jpg'
p120
g3
(g4
(I0
tS'b'
tRp121
(I1
(I2
tg7
I00
S'\xed~j?\x86\x08\xac='
tbtp122
a(S'/data/ad6813/pipe-data/Blue100/198310.jpg'
p123
g3
(g4
(I0
tS'b'
tRp124
(I1
(I2
tg7
I00
S'bD\x7f?\xf2\x9e;;'
tbtp125
a(S'/data/ad6813/pipe-data/Blue100/198311.jpg'
p126
g3
(g4
(I0
tS'b'
tRp127
(I1
(I2
tg7
I00
S'\xb84\x7f?\xd0FK;'
tbtp128
a(S'/data/ad6813/pipe-data/Blue100/198317.jpg'
p129
g3
(g4
(I0
tS'b'
tRp130
(I1
(I2
tg7
I00
S'\r\xbc\x7f?"\xe6\x87:'
tbtp131
a(S'/data/ad6813/pipe-data/Blue100/198321.jpg'
p132
g3
(g4
(I0
tS'b'
tRp133
(I1
(I2
tg7
I00
S'\x80\x19i?\xfe3\xb7='
tbtp134
a(S'/data/ad6813/pipe-data/Blue100/198322.jpg'
p135
g3
(g4
(I0
tS'b'
tRp136
(I1
(I2
tg7
I00
S'\xbd\xe7\x7f?\xda\x16\xc29'
tbtp137
a(S'/data/ad6813/pipe-data/Blue100/198328.jpg'
p138
g3
(g4
(I0
tS'b'
tRp139
(I1
(I2
tg7
I00
S'\xcdJv?#S\x1b='
tbtp140
a(S'/data/ad6813/pipe-data/Blue100/198330.jpg'
p141
g3
(g4
(I0
tS'b'
tRp142
(I1
(I2
tg7
I00
S'\xe0\x9dt?\xfe!6='
tbtp143
a(S'/data/ad6813/pipe-data/Blue100/198331.jpg'
p144
g3
(g4
(I0
tS'b'
tRp145
(I1
(I2
tg7
I00
S"\xc5vx?p'\xf1<"
tbtp146
a(S'/data/ad6813/pipe-data/Blue100/198339.jpg'
p147
g3
(g4
(I0
tS'b'
tRp148
(I1
(I2
tg7
I00
S'\xad\xd0~?\xad\xa9\x97;'
tbtp149
a(S'/data/ad6813/pipe-data/Blue100/198344.jpg'
p150
g3
(g4
(I0
tS'b'
tRp151
(I1
(I2
tg7
I00
S'\xb0\xeb\xdd>(\n\x11?'
tbtp152
a(S'/data/ad6813/pipe-data/Blue100/198355.jpg'
p153
g3
(g4
(I0
tS'b'
tRp154
(I1
(I2
tg7
I00
S'x\x86p?m\x98w='
tbtp155
a(S'/data/ad6813/pipe-data/Blue100/198357.jpg'
p156
g3
(g4
(I0
tS'b'
tRp157
(I1
(I2
tg7
I00
S'\xeb\xb5{?[B\x89<'
tbtp158
a(S'/data/ad6813/pipe-data/Blue100/198360.jpg'
p159
g3
(g4
(I0
tS'b'
tRp160
(I1
(I2
tg7
I00
S'3-z?qY\xba<'
tbtp161
a(S'/data/ad6813/pipe-data/Blue100/198363.jpg'
p162
g3
(g4
(I0
tS'b'
tRp163
(I1
(I2
tg7
I00
S'\xa2Gx?\xa6\x0b\xf7<'
tbtp164
a(S'/data/ad6813/pipe-data/Blue100/198364.jpg'
p165
g3
(g4
(I0
tS'b'
tRp166
(I1
(I2
tg7
I00
S'\xd2\xf9x?\xf6\xc5\xe0<'
tbtp167
a(S'/data/ad6813/pipe-data/Blue100/198365.jpg'
p168
g3
(g4
(I0
tS'b'
tRp169
(I1
(I2
tg7
I00
S'\xea\xf2n?\xbeh\x88='
tbtp170
a(S'/data/ad6813/pipe-data/Blue100/198368.jpg'
p171
g3
(g4
(I0
tS'b'
tRp172
(I1
(I2
tg7
I00
S'\xd6i{?f\xc5\x92<'
tbtp173
a(S'/data/ad6813/pipe-data/Blue100/198373.jpg'
p174
g3
(g4
(I0
tS'b'
tRp175
(I1
(I2
tg7
I00
S'\xfb\xd6H?\x10\xa4\\>'
tbtp176
a(S'/data/ad6813/pipe-data/Blue100/198377.jpg'
p177
g3
(g4
(I0
tS'b'
tRp178
(I1
(I2
tg7
I00
S'j\xd2\x7f?\x00X6:'
tbtp179
a(S'/data/ad6813/pipe-data/Blue100/198379.jpg'
p180
g3
(g4
(I0
tS'b'
tRp181
(I1
(I2
tg7
I00
S'\xa8\xd7z?\xf8\n\xa5<'
tbtp182
a(S'/data/ad6813/pipe-data/Blue100/198382.jpg'
p183
g3
(g4
(I0
tS'b'
tRp184
(I1
(I2
tg7
I00
S'\x98\x16\x7f?\xadhi;'
tbtp185
a(S'/data/ad6813/pipe-data/Blue100/198388.jpg'
p186
g3
(g4
(I0
tS'b'
tRp187
(I1
(I2
tg7
I00
S's\x15t?\xd3\xa8>='
tbtp188
a(S'/data/ad6813/pipe-data/Blue100/198389.jpg'
p189
g3
(g4
(I0
tS'b'
tRp190
(I1
(I2
tg7
I00
S'2\xb7|?`3R<'
tbtp191
a(S'/data/ad6813/pipe-data/Blue100/198395.jpg'
p192
g3
(g4
(I0
tS'b'
tRp193
(I1
(I2
tg7
I00
S'\x8b\xbb|?r\x1dQ<'
tbtp194
a(S'/data/ad6813/pipe-data/Blue100/198396.jpg'
p195
g3
(g4
(I0
tS'b'
tRp196
(I1
(I2
tg7
I00
S'\xc3\xdf}?#\x0f\x08<'
tbtp197
a(S'/data/ad6813/pipe-data/Blue100/198398.jpg'
p198
g3
(g4
(I0
tS'b'
tRp199
(I1
(I2
tg7
I00
S'f\xdf\x7f?\xebg\x02:'
tbtp200
a(S'/data/ad6813/pipe-data/Blue100/198407.jpg'
p201
g3
(g4
(I0
tS'b'
tRp202
(I1
(I2
tg7
I00
S'8\xc1y?\xfd\xd8\xc7<'
tbtp203
a(S'/data/ad6813/pipe-data/Blue100/198410.jpg'
p204
g3
(g4
(I0
tS'b'
tRp205
(I1
(I2
tg7
I00
S'\xe6\x13w?\xa3\xc1\x0e='
tbtp206
a(S'/data/ad6813/pipe-data/Blue100/198411.jpg'
p207
g3
(g4
(I0
tS'b'
tRp208
(I1
(I2
tg7
I00
S'BXw?\xfa{\n='
tbtp209
a(S'/data/ad6813/pipe-data/Blue100/198415.jpg'
p210
g3
(g4
(I0
tS'b'
tRp211
(I1
(I2
tg7
I00
S'\xd4\xe6??T2\x80>'
tbtp212
a(S'/data/ad6813/pipe-data/Blue100/198442.jpg'
p213
g3
(g4
(I0
tS'b'
tRp214
(I1
(I2
tg7
I00
S'\xbe\xdfp?\x15\x04r='
tbtp215
a(S'/data/ad6813/pipe-data/Blue100/198456.jpg'
p216
g3
(g4
(I0
tS'b'
tRp217
(I1
(I2
tg7
I00
S'5\xb9B?2\x1bu>'
tbtp218
a(S'/data/ad6813/pipe-data/Blue100/198470.jpg'
p219
g3
(g4
(I0
tS'b'
tRp220
(I1
(I2
tg7
I00
S'\x10<z?\xea}\xb8<'
tbtp221
a(S'/data/ad6813/pipe-data/Blue100/198471.jpg'
p222
g3
(g4
(I0
tS'b'
tRp223
(I1
(I2
tg7
I00
S'\x06\xbd\x00?\xf5\x85\xfe>'
tbtp224
a(S'/data/ad6813/pipe-data/Blue100/198474.jpg'
p225
g3
(g4
(I0
tS'b'
tRp226
(I1
(I2
tg7
I00
S'c\x88{?m\xf3\x8e<'
tbtp227
a(S'/data/ad6813/pipe-data/Blue100/198475.jpg'
p228
g3
(g4
(I0
tS'b'
tRp229
(I1
(I2
tg7
I00
S'\xda\xb3}?\x13\t\x13<'
tbtp230
a(S'/data/ad6813/pipe-data/Blue100/198476.jpg'
p231
g3
(g4
(I0
tS'b'
tRp232
(I1
(I2
tg7
I00
S'\xd0m}?\x85\x8c$<'
tbtp233
a(S'/data/ad6813/pipe-data/Blue100/198479.jpg'
p234
g3
(g4
(I0
tS'b'
tRp235
(I1
(I2
tg7
I00
S'\xfa\xee_?\x17D\x00>'
tbtp236
a(S'/data/ad6813/pipe-data/Blue100/198481.jpg'
p237
g3
(g4
(I0
tS'b'
tRp238
(I1
(I2
tg7
I00
S'\x86\xe2|?F^G<'
tbtp239
a(S'/data/ad6813/pipe-data/Blue100/198509.jpg'
p240
g3
(g4
(I0
tS'b'
tRp241
(I1
(I2
tg7
I00
S'C\xb3z?\xa5\x97\xa9<'
tbtp242
a(S'/data/ad6813/pipe-data/Blue100/198518.jpg'
p243
g3
(g4
(I0
tS'b'
tRp244
(I1
(I2
tg7
I00
S'\xda\nm?:\xa9\x97='
tbtp245
a(S'/data/ad6813/pipe-data/Blue100/198519.jpg'
p246
g3
(g4
(I0
tS'b'
tRp247
(I1
(I2
tg7
I00
S'\r\xd3{?h\x9e\x85<'
tbtp248
a(S'/data/ad6813/pipe-data/Blue100/198528.jpg'
p249
g3
(g4
(I0
tS'b'
tRp250
(I1
(I2
tg7
I00
S'\x98\xa9\x7f?v\xd0\xac:'
tbtp251
a(S'/data/ad6813/pipe-data/Blue100/198529.jpg'
p252
g3
(g4
(I0
tS'b'
tRp253
(I1
(I2
tg7
I00
S'\x06\x88|?\x8d\xfe]<'
tbtp254
a(S'/data/ad6813/pipe-data/Blue100/198532.jpg'
p255
g3
(g4
(I0
tS'b'
tRp256
(I1
(I2
tg7
I00
S'n\x8ck?\x8e\x9c\xa3='
tbtp257
a(S'/data/ad6813/pipe-data/Blue100/198540.jpg'
p258
g3
(g4
(I0
tS'b'
tRp259
(I1
(I2
tg7
I00
S'>\xd7z?c\x18\xa5<'
tbtp260
a(S'/data/ad6813/pipe-data/Blue100/198556.jpg'
p261
g3
(g4
(I0
tS'b'
tRp262
(I1
(I2
tg7
I00
S'\xc3\xa7k?\xda\xc1\xa2='
tbtp263
a(S'/data/ad6813/pipe-data/Blue100/198600.jpg'
p264
g3
(g4
(I0
tS'b'
tRp265
(I1
(I2
tg7
I00
S'z\xc0#?\x0e\x7f\xb8>'
tbtp266
a(S'/data/ad6813/pipe-data/Blue100/198601.jpg'
p267
g3
(g4
(I0
tS'b'
tRp268
(I1
(I2
tg7
I00
S'F?~?e]\xe0;'
tbtp269
a(S'/data/ad6813/pipe-data/Blue100/198604.jpg'
p270
g3
(g4
(I0
tS'b'
tRp271
(I1
(I2
tg7
I00
S'\x8e\xe9\x87>:\x0b<?'
tbtp272
a(S'/data/ad6813/pipe-data/Blue100/198608.jpg'
p273
g3
(g4
(I0
tS'b'
tRp274
(I1
(I2
tg7
I00
S'\x12\xb5v?\xc3\xae\x14='
tbtp275
a(S'/data/ad6813/pipe-data/Blue100/198610.jpg'
p276
g3
(g4
(I0
tS'b'
tRp277
(I1
(I2
tg7
I00
S'"\x97o?\xf1F\x83='
tbtp278
a(S'/data/ad6813/pipe-data/Blue100/198620.jpg'
p279
g3
(g4
(I0
tS'b'
tRp280
(I1
(I2
tg7
I00
S'~\xe5K?\x0bjP>'
tbtp281
a(S'/data/ad6813/pipe-data/Blue100/198622.jpg'
p282
g3
(g4
(I0
tS'b'
tRp283
(I1
(I2
tg7
I00
S'\xd0\x88Q?\xbd\xdc9>'
tbtp284
a(S'/data/ad6813/pipe-data/Blue100/198627.jpg'
p285
g3
(g4
(I0
tS'b'
tRp286
(I1
(I2
tg7
I00
S'\x189\x7f?\x05\xe9F;'
tbtp287
a(S'/data/ad6813/pipe-data/Blue100/198629.jpg'
p288
g3
(g4
(I0
tS'b'
tRp289
(I1
(I2
tg7
I00
S'\xc8\x88r?\x93sW='
tbtp290
a(S'/data/ad6813/pipe-data/Blue100/198630.jpg'
p291
g3
(g4
(I0
tS'b'
tRp292
(I1
(I2
tg7
I00
S'\xc8\x1bj?\xb4!\xaf='
tbtp293
a(S'/data/ad6813/pipe-data/Blue100/198637.jpg'
p294
g3
(g4
(I0
tS'b'
tRp295
(I1
(I2
tg7
I00
S'\xb8\\u?\x884*='
tbtp296
a(S'/data/ad6813/pipe-data/Blue100/198638.jpg'
p297
g3
(g4
(I0
tS'b'
tRp298
(I1
(I2
tg7
I00
S'~\xa3t?\n\xc85='
tbtp299
a(S'/data/ad6813/pipe-data/Blue100/198640.jpg'
p300
g3
(g4
(I0
tS'b'
tRp301
(I1
(I2
tg7
I00
S'\x9bW{?_\x0c\x95<'
tbtp302
a(S'/data/ad6813/pipe-data/Blue100/198653.jpg'
p303
g3
(g4
(I0
tS'b'
tRp304
(I1
(I2
tg7
I00
S'\x1eR{?\xf8\xbb\x95<'
tbtp305
a.