(lp1
(S'/data/ad6813/pipe-data/Blue100/198098.jpg'
p2
cnumpy.core.multiarray
_reconstruct
p3
(cnumpy
ndarray
p4
(I0
tS'b'
tRp5
(I1
(I2
tcnumpy
dtype
p6
(S'f4'
I0
I1
tRp7
(I3
S'<'
NNNI-1
I-1
I0
tbI00
S'C\xc9|?(\xafM<'
tbtp8
a(S'/data/ad6813/pipe-data/Blue100/198107.jpg'
p9
g3
(g4
(I0
tS'b'
tRp10
(I1
(I2
tg7
I00
S'\xad\x1a\x7f?\xf0Te;'
tbtp11
a(S'/data/ad6813/pipe-data/Blue100/198117.jpg'
p12
g3
(g4
(I0
tS'b'
tRp13
(I1
(I2
tg7
I00
S'\x1e>u?%\x1e,='
tbtp14
a(S'/data/ad6813/pipe-data/Blue100/198118.jpg'
p15
g3
(g4
(I0
tS'b'
tRp16
(I1
(I2
tg7
I00
S'B\xf1y?\xd4\xd7\xc1<'
tbtp17
a(S'/data/ad6813/pipe-data/Blue100/198121.jpg'
p18
g3
(g4
(I0
tS'b'
tRp19
(I1
(I2
tg7
I00
S'\xf0\x95\x7f?\xd8\x1d\xd4:'
tbtp20
a(S'/data/ad6813/pipe-data/Blue100/198122.jpg'
p21
g3
(g4
(I0
tS'b'
tRp22
(I1
(I2
tg7
I00
S'\x90\\n?\x90\x1b\x8d='
tbtp23
a(S'/data/ad6813/pipe-data/Blue100/198132.jpg'
p24
g3
(g4
(I0
tS'b'
tRp25
(I1
(I2
tg7
I00
S'\xaa\xc4\x7f?\xb5Qm:'
tbtp26
a(S'/data/ad6813/pipe-data/Blue100/198134.jpg'
p27
g3
(g4
(I0
tS'b'
tRp28
(I1
(I2
tg7
I00
S'z\nY?\x14\xd6\x1b>'
tbtp29
a(S'/data/ad6813/pipe-data/Blue100/198140.jpg'
p30
g3
(g4
(I0
tS'b'
tRp31
(I1
(I2
tg7
I00
S'\xc6\xa4~?\xef\x9c\xad;'
tbtp32
a(S'/data/ad6813/pipe-data/Blue100/198143.jpg'
p33
g3
(g4
(I0
tS'b'
tRp34
(I1
(I2
tg7
I00
S'\xe6\x96\x7f?\n2\xd2:'
tbtp35
a(S'/data/ad6813/pipe-data/Blue100/198164.jpg'
p36
g3
(g4
(I0
tS'b'
tRp37
(I1
(I2
tg7
I00
S'\x08`\xb7>\xfbO$?'
tbtp38
a(S'/data/ad6813/pipe-data/Blue100/198170.jpg'
p39
g3
(g4
(I0
tS'b'
tRp40
(I1
(I2
tg7
I00
S'\xf5\x0f\x7f?\xcd\x0cp;'
tbtp41
a(S'/data/ad6813/pipe-data/Blue100/198174.jpg'
p42
g3
(g4
(I0
tS'b'
tRp43
(I1
(I2
tg7
I00
S'\xe6\xacp?\x961u='
tbtp44
a(S'/data/ad6813/pipe-data/Blue100/198176.jpg'
p45
g3
(g4
(I0
tS'b'
tRp46
(I1
(I2
tg7
I00
S'2\x0bC>5=O?'
tbtp47
a(S'/data/ad6813/pipe-data/Blue100/198183.jpg'
p48
g3
(g4
(I0
tS'b'
tRp49
(I1
(I2
tg7
I00
S'\n\x18`?\xb0?\xff='
tbtp50
a(S'/data/ad6813/pipe-data/Blue100/198190.jpg'
p51
g3
(g4
(I0
tS'b'
tRp52
(I1
(I2
tg7
I00
S'\xf8\xd2~?\xe0\x83\x96;'
tbtp53
a(S'/data/ad6813/pipe-data/Blue100/198210.jpg'
p54
g3
(g4
(I0
tS'b'
tRp55
(I1
(I2
tg7
I00
S'\xe5T\xf8>\x8e\xd5\x03?'
tbtp56
a(S'/data/ad6813/pipe-data/Blue100/198211.jpg'
p57
g3
(g4
(I0
tS'b'
tRp58
(I1
(I2
tg7
I00
S'\xd0Q\xec>\x16\xd7\t?'
tbtp59
a(S'/data/ad6813/pipe-data/Blue100/198214.jpg'
p60
g3
(g4
(I0
tS'b'
tRp61
(I1
(I2
tg7
I00
S'\xa8\x19|?\xe3\x95y<'
tbtp62
a(S'/data/ad6813/pipe-data/Blue100/198215.jpg'
p63
g3
(g4
(I0
tS'b'
tRp64
(I1
(I2
tg7
I00
S'Z\x0eu?b\x1a/='
tbtp65
a(S'/data/ad6813/pipe-data/Blue100/198218.jpg'
p66
g3
(g4
(I0
tS'b'
tRp67
(I1
(I2
tg7
I00
S'ml|?\x03\xe5d<'
tbtp68
a(S'/data/ad6813/pipe-data/Blue100/198219.jpg'
p69
g3
(g4
(I0
tS'b'
tRp70
(I1
(I2
tg7
I00
S'\x8d\xe7p?5\x87q='
tbtp71
a(S'/data/ad6813/pipe-data/Blue100/198222.jpg'
p72
g3
(g4
(I0
tS'b'
tRp73
(I1
(I2
tg7
I00
S'\xd2<x?\xaee\xf8<'
tbtp74
a(S'/data/ad6813/pipe-data/Blue100/198223.jpg'
p75
g3
(g4
(I0
tS'b'
tRp76
(I1
(I2
tg7
I00
S'\x90\xd5y?\xe7M\xc5<'
tbtp77
a(S'/data/ad6813/pipe-data/Blue100/198226.jpg'
p78
g3
(g4
(I0
tS'b'
tRp79
(I1
(I2
tg7
I00
S'N\x16[?\xc2\xa6\x13>'
tbtp80
a(S'/data/ad6813/pipe-data/Blue100/198228.jpg'
p81
g3
(g4
(I0
tS'b'
tRp82
(I1
(I2
tg7
I00
S'\x7f\xa83?\x02\xaf\x98>'
tbtp83
a(S'/data/ad6813/pipe-data/Blue100/198229.jpg'
p84
g3
(g4
(I0
tS'b'
tRp85
(I1
(I2
tg7
I00
S'_\xa0D?}~m>'
tbtp86
a(S'/data/ad6813/pipe-data/Blue100/198239.jpg'
p87
g3
(g4
(I0
tS'b'
tRp88
(I1
(I2
tg7
I00
S'^\xeel?\x0e\x8d\x98='
tbtp89
a(S'/data/ad6813/pipe-data/Blue100/198242.jpg'
p90
g3
(g4
(I0
tS'b'
tRp91
(I1
(I2
tg7
I00
S'\xae\x1by?j\x8a\xdc<'
tbtp92
a(S'/data/ad6813/pipe-data/Blue100/198245.jpg'
p93
g3
(g4
(I0
tS'b'
tRp94
(I1
(I2
tg7
I00
S'\x88\x8cy?\x1eo\xce<'
tbtp95
a(S'/data/ad6813/pipe-data/Blue100/198249.jpg'
p96
g3
(g4
(I0
tS'b'
tRp97
(I1
(I2
tg7
I00
S'\xbe\x92q?6\xd4f='
tbtp98
a(S'/data/ad6813/pipe-data/Blue100/198262.jpg'
p99
g3
(g4
(I0
tS'b'
tRp100
(I1
(I2
tg7
I00
S'\xb6\x05\x7f?\xb3Hz;'
tbtp101
a(S'/data/ad6813/pipe-data/Blue100/198265.jpg'
p102
g3
(g4
(I0
tS'b'
tRp103
(I1
(I2
tg7
I00
S'\xd2$b?m\xd9\xee='
tbtp104
a(S'/data/ad6813/pipe-data/Blue100/198270.jpg'
p105
g3
(g4
(I0
tS'b'
tRp106
(I1
(I2
tg7
I00
S'\xc5W}?\xe7\x0e*<'
tbtp107
a(S'/data/ad6813/pipe-data/Blue100/198271.jpg'
p108
g3
(g4
(I0
tS'b'
tRp109
(I1
(I2
tg7
I00
S'\x9e\x97\x15?\xc5\xd0\xd4>'
tbtp110
a(S'/data/ad6813/pipe-data/Blue100/198280.jpg'
p111
g3
(g4
(I0
tS'b'
tRp112
(I1
(I2
tg7
I00
S'\x1e\x87\x7f?\x13\xc7\xf1:'
tbtp113
a(S'/data/ad6813/pipe-data/Blue100/198291.jpg'
p114
g3
(g4
(I0
tS'b'
tRp115
(I1
(I2
tg7
I00
S'\xd89e?@1\xd6='
tbtp116
a(S'/data/ad6813/pipe-data/Blue100/198297.jpg'
p117
g3
(g4
(I0
tS'b'
tRp118
(I1
(I2
tg7
I00
S'-\x9d+?\xa7\xc5\xa8>'
tbtp119
a(S'/data/ad6813/pipe-data/Blue100/198307.jpg'
p120
g3
(g4
(I0
tS'b'
tRp121
(I1
(I2
tg7
I00
S'\x82\x19\xe7=\xce\x1cc?'
tbtp122
a(S'/data/ad6813/pipe-data/Blue100/198310.jpg'
p123
g3
(g4
(I0
tS'b'
tRp124
(I1
(I2
tg7
I00
S'\x85\x9f~?k=\xb0;'
tbtp125
a(S'/data/ad6813/pipe-data/Blue100/198311.jpg'
p126
g3
(g4
(I0
tS'b'
tRp127
(I1
(I2
tg7
I00
S'\xf2\xfd~?\x00\x06\x81;'
tbtp128
a(S'/data/ad6813/pipe-data/Blue100/198317.jpg'
p129
g3
(g4
(I0
tS'b'
tRp130
(I1
(I2
tg7
I00
S'7\x97;?\x90\xd1\x88>'
tbtp131
a(S'/data/ad6813/pipe-data/Blue100/198321.jpg'
p132
g3
(g4
(I0
tS'b'
tRp133
(I1
(I2
tg7
I00
S'\xee\xb7p?3\x81t='
tbtp134
a(S'/data/ad6813/pipe-data/Blue100/198322.jpg'
p135
g3
(g4
(I0
tS'b'
tRp136
(I1
(I2
tg7
I00
S'\x05\xf4Y?\xe7/\x18>'
tbtp137
a(S'/data/ad6813/pipe-data/Blue100/198328.jpg'
p138
g3
(g4
(I0
tS'b'
tRp139
(I1
(I2
tg7
I00
S'\xa01a?\x0es\xf6='
tbtp140
a(S'/data/ad6813/pipe-data/Blue100/198330.jpg'
p141
g3
(g4
(I0
tS'b'
tRp142
(I1
(I2
tg7
I00
S'\xbdS}?\xb2\x10+<'
tbtp143
a(S'/data/ad6813/pipe-data/Blue100/198331.jpg'
p144
g3
(g4
(I0
tS'b'
tRp145
(I1
(I2
tg7
I00
S'\x8a\xf1z?\xf7\xce\xa1<'
tbtp146
a(S'/data/ad6813/pipe-data/Blue100/198339.jpg'
p147
g3
(g4
(I0
tS'b'
tRp148
(I1
(I2
tg7
I00
S'B\x04z?\xc4w\xbf<'
tbtp149
a(S'/data/ad6813/pipe-data/Blue100/198344.jpg'
p150
g3
(g4
(I0
tS'b'
tRp151
(I1
(I2
tg7
I00
S'v\xf4g?R\\\xc0='
tbtp152
a(S'/data/ad6813/pipe-data/Blue100/198355.jpg'
p153
g3
(g4
(I0
tS'b'
tRp154
(I1
(I2
tg7
I00
S'\n\xb1}?\x8d\xbd\x13<'
tbtp155
a(S'/data/ad6813/pipe-data/Blue100/198357.jpg'
p156
g3
(g4
(I0
tS'b'
tRp157
(I1
(I2
tg7
I00
S'\x9aT|?\xf3\xd9j<'
tbtp158
a(S'/data/ad6813/pipe-data/Blue100/198360.jpg'
p159
g3
(g4
(I0
tS'b'
tRp160
(I1
(I2
tg7
I00
S'\x8dO\x7f?\x8dr0;'
tbtp161
a(S'/data/ad6813/pipe-data/Blue100/198363.jpg'
p162
g3
(g4
(I0
tS'b'
tRp163
(I1
(I2
tg7
I00
S'\xa3\xb8\x7f?\xb3\xbc\x8e:'
tbtp164
a(S'/data/ad6813/pipe-data/Blue100/198364.jpg'
p165
g3
(g4
(I0
tS'b'
tRp166
(I1
(I2
tg7
I00
S'\xd3\xf1~?\xdb\x15\x87;'
tbtp167
a(S'/data/ad6813/pipe-data/Blue100/198365.jpg'
p168
g3
(g4
(I0
tS'b'
tRp169
(I1
(I2
tg7
I00
S'\xd3\x88t?\xd2r7='
tbtp170
a(S'/data/ad6813/pipe-data/Blue100/198368.jpg'
p171
g3
(g4
(I0
tS'b'
tRp172
(I1
(I2
tg7
I00
S'V"\x7f?f\xab];'
tbtp173
a(S'/data/ad6813/pipe-data/Blue100/198373.jpg'
p174
g3
(g4
(I0
tS'b'
tRp175
(I1
(I2
tg7
I00
S"'\xeeB?^Gt>"
tbtp176
a(S'/data/ad6813/pipe-data/Blue100/198377.jpg'
p177
g3
(g4
(I0
tS'b'
tRp178
(I1
(I2
tg7
I00
S'\xd2a\x7f?)/\x1e;'
tbtp179
a(S'/data/ad6813/pipe-data/Blue100/198379.jpg'
p180
g3
(g4
(I0
tS'b'
tRp181
(I1
(I2
tg7
I00
S'\x18\x1fr?m\x0e^='
tbtp182
a(S'/data/ad6813/pipe-data/Blue100/198382.jpg'
p183
g3
(g4
(I0
tS'b'
tRp184
(I1
(I2
tg7
I00
S'\xa8\xc37?\xb1x\x90>'
tbtp185
a(S'/data/ad6813/pipe-data/Blue100/198388.jpg'
p186
g3
(g4
(I0
tS'b'
tRp187
(I1
(I2
tg7
I00
S'\rr\x7f?\x96\xf3\r;'
tbtp188
a(S'/data/ad6813/pipe-data/Blue100/198389.jpg'
p189
g3
(g4
(I0
tS'b'
tRp190
(I1
(I2
tg7
I00
S'\xd3x8?^\x0e\x8f>'
tbtp191
a(S'/data/ad6813/pipe-data/Blue100/198395.jpg'
p192
g3
(g4
(I0
tS'b'
tRp193
(I1
(I2
tg7
I00
S'\xdd\xa1m?\x1b\xf1\x92='
tbtp194
a(S'/data/ad6813/pipe-data/Blue100/198396.jpg'
p195
g3
(g4
(I0
tS'b'
tRp196
(I1
(I2
tg7
I00
S'\x16MK?\xa2\xcbR>'
tbtp197
a(S'/data/ad6813/pipe-data/Blue100/198398.jpg'
p198
g3
(g4
(I0
tS'b'
tRp199
(I1
(I2
tg7
I00
S'\x8b?{?\xa2\x0e\x98<'
tbtp200
a(S'/data/ad6813/pipe-data/Blue100/198407.jpg'
p201
g3
(g4
(I0
tS'b'
tRp202
(I1
(I2
tg7
I00
S'\x00\xfb\x7f?F4\xa08'
tbtp203
a(S'/data/ad6813/pipe-data/Blue100/198410.jpg'
p204
g3
(g4
(I0
tS'b'
tRp205
(I1
(I2
tg7
I00
S'\xc5\x9cv?\xba3\x16='
tbtp206
a(S'/data/ad6813/pipe-data/Blue100/198411.jpg'
p207
g3
(g4
(I0
tS'b'
tRp208
(I1
(I2
tg7
I00
S'\x88\x17s?\x83\x87N='
tbtp209
a(S'/data/ad6813/pipe-data/Blue100/198415.jpg'
p210
g3
(g4
(I0
tS'b'
tRp211
(I1
(I2
tg7
I00
S'\xb8\xf7I>\x12\x82M?'
tbtp212
a(S'/data/ad6813/pipe-data/Blue100/198442.jpg'
p213
g3
(g4
(I0
tS'b'
tRp214
(I1
(I2
tg7
I00
S'B\x14r?\xe0\xbb^='
tbtp215
a(S'/data/ad6813/pipe-data/Blue100/198456.jpg'
p216
g3
(g4
(I0
tS'b'
tRp217
(I1
(I2
tg7
I00
S'\n\xcfA?\xd8\xc3x>'
tbtp218
a(S'/data/ad6813/pipe-data/Blue100/198470.jpg'
p219
g3
(g4
(I0
tS'b'
tRp220
(I1
(I2
tg7
I00
S'p\xfft?\xe7\x080='
tbtp221
a(S'/data/ad6813/pipe-data/Blue100/198471.jpg'
p222
g3
(g4
(I0
tS'b'
tRp223
(I1
(I2
tg7
I00
S's\xff}?\x1a#\x00<'
tbtp224
a(S'/data/ad6813/pipe-data/Blue100/198474.jpg'
p225
g3
(g4
(I0
tS'b'
tRp226
(I1
(I2
tg7
I00
S'\xd0Cm?\x82\xe1\x95='
tbtp227
a(S'/data/ad6813/pipe-data/Blue100/198475.jpg'
p228
g3
(g4
(I0
tS'b'
tRp229
(I1
(I2
tg7
I00
S'Q[\x10?^I\xdf>'
tbtp230
a(S'/data/ad6813/pipe-data/Blue100/198476.jpg'
p231
g3
(g4
(I0
tS'b'
tRp232
(I1
(I2
tg7
I00
S'\x02x}?\xd6\xff!<'
tbtp233
a(S'/data/ad6813/pipe-data/Blue100/198479.jpg'
p234
g3
(g4
(I0
tS'b'
tRp235
(I1
(I2
tg7
I00
S'\x9d\xc9\x7f?V\x8cY:'
tbtp236
a(S'/data/ad6813/pipe-data/Blue100/198481.jpg'
p237
g3
(g4
(I0
tS'b'
tRp238
(I1
(I2
tg7
I00
S']6{?u4\x99<'
tbtp239
a(S'/data/ad6813/pipe-data/Blue100/198509.jpg'
p240
g3
(g4
(I0
tS'b'
tRp241
(I1
(I2
tg7
I00
S'\xca=\x7f?\x9e7B;'
tbtp242
a(S'/data/ad6813/pipe-data/Blue100/198518.jpg'
p243
g3
(g4
(I0
tS'b'
tRp244
(I1
(I2
tg7
I00
S'\xe8\xfds?z!@='
tbtp245
a(S'/data/ad6813/pipe-data/Blue100/198519.jpg'
p246
g3
(g4
(I0
tS'b'
tRp247
(I1
(I2
tg7
I00
S'c\xfd]?t\n\x08>'
tbtp248
a(S'/data/ad6813/pipe-data/Blue100/198528.jpg'
p249
g3
(g4
(I0
tS'b'
tRp250
(I1
(I2
tg7
I00
S'\xa5-o?\xe8\x92\x86='
tbtp251
a(S'/data/ad6813/pipe-data/Blue100/198529.jpg'
p252
g3
(g4
(I0
tS'b'
tRp253
(I1
(I2
tg7
I00
S'\xd5\x90j?Wy\xab='
tbtp254
a(S'/data/ad6813/pipe-data/Blue100/198532.jpg'
p255
g3
(g4
(I0
tS'b'
tRp256
(I1
(I2
tg7
I00
S'PS\x7f?F\xaf,;'
tbtp257
a(S'/data/ad6813/pipe-data/Blue100/198540.jpg'
p258
g3
(g4
(I0
tS'b'
tRp259
(I1
(I2
tg7
I00
S']\x9a\x7f?\xc0D\xcb:'
tbtp260
a(S'/data/ad6813/pipe-data/Blue100/198556.jpg'
p261
g3
(g4
(I0
tS'b'
tRp262
(I1
(I2
tg7
I00
S'\x88\x0cq?\x807o='
tbtp263
a(S'/data/ad6813/pipe-data/Blue100/198600.jpg'
p264
g3
(g4
(I0
tS'b'
tRp265
(I1
(I2
tg7
I00
S'\xd2\x0f\x16?Z\xe0\xd3>'
tbtp266
a(S'/data/ad6813/pipe-data/Blue100/198601.jpg'
p267
g3
(g4
(I0
tS'b'
tRp268
(I1
(I2
tg7
I00
S'8\x1f\xb4>d\xf0%?'
tbtp269
a(S'/data/ad6813/pipe-data/Blue100/198604.jpg'
p270
g3
(g4
(I0
tS'b'
tRp271
(I1
(I2
tg7
I00
S'\x92\xab=?\xdc\xa8\x84>'
tbtp272
a(S'/data/ad6813/pipe-data/Blue100/198608.jpg'
p273
g3
(g4
(I0
tS'b'
tRp274
(I1
(I2
tg7
I00
S'J\xc3\xfd>[\x1e\x01?'
tbtp275
a(S'/data/ad6813/pipe-data/Blue100/198610.jpg'
p276
g3
(g4
(I0
tS'b'
tRp277
(I1
(I2
tg7
I00
S'|\x1c\x04?\n\xc7\xf7>'
tbtp278
a(S'/data/ad6813/pipe-data/Blue100/198620.jpg'
p279
g3
(g4
(I0
tS'b'
tRp280
(I1
(I2
tg7
I00
S'\xe8\xc8\x1e=r\x13v?'
tbtp281
a(S'/data/ad6813/pipe-data/Blue100/198622.jpg'
p282
g3
(g4
(I0
tS'b'
tRp283
(I1
(I2
tg7
I00
S'\xa2"y?\xe3\xab\xdb<'
tbtp284
a(S'/data/ad6813/pipe-data/Blue100/198627.jpg'
p285
g3
(g4
(I0
tS'b'
tRp286
(I1
(I2
tg7
I00
S'n^~?\xc2\xc9\xd0;'
tbtp287
a(S'/data/ad6813/pipe-data/Blue100/198629.jpg'
p288
g3
(g4
(I0
tS'b'
tRp289
(I1
(I2
tg7
I00
S'M1W?\xd0:#>'
tbtp290
a(S'/data/ad6813/pipe-data/Blue100/198630.jpg'
p291
g3
(g4
(I0
tS'b'
tRp292
(I1
(I2
tg7
I00
S'2\x19~?\xd6f\xf3;'
tbtp293
a(S'/data/ad6813/pipe-data/Blue100/198637.jpg'
p294
g3
(g4
(I0
tS'b'
tRp295
(I1
(I2
tg7
I00
S'u\x86~?\x80\xc5\xbc;'
tbtp296
a(S'/data/ad6813/pipe-data/Blue100/198638.jpg'
p297
g3
(g4
(I0
tS'b'
tRp298
(I1
(I2
tg7
I00
S'\x08\xa8\x7f?p\xee\xaf:'
tbtp299
a(S'/data/ad6813/pipe-data/Blue100/198640.jpg'
p300
g3
(g4
(I0
tS'b'
tRp301
(I1
(I2
tg7
I00
S'^\xdf\x7f?9\x87\x02:'
tbtp302
a(S'/data/ad6813/pipe-data/Blue100/198653.jpg'
p303
g3
(g4
(I0
tS'b'
tRp304
(I1
(I2
tg7
I00
S'\xf6\xca~?\xfb\x84\x9a;'
tbtp305
a.