(lp1
(S'/data/ad6813/pipe-data/BlueboxTemp/198098.jpg'
p2
cnumpy.core.multiarray
_reconstruct
p3
(cnumpy
ndarray
p4
(I0
tS'b'
tRp5
(I1
(I2
tcnumpy
dtype
p6
(S'f4'
I0
I1
tRp7
(I3
S'<'
NNNI-1
I-1
I0
tbI00
S'R\x82&?^\xfb\xb2>'
tbtp8
a(S'/data/ad6813/pipe-data/BlueboxTemp/198107.jpg'
p9
g3
(g4
(I0
tS'b'
tRp10
(I1
(I2
tg7
I00
S'0!R?F{7>'
tbtp11
a(S'/data/ad6813/pipe-data/BlueboxTemp/198117.jpg'
p12
g3
(g4
(I0
tS'b'
tRp13
(I1
(I2
tg7
I00
S'\xfa\x92l?-h\x9b='
tbtp14
a(S'/data/ad6813/pipe-data/BlueboxTemp/198118.jpg'
p15
g3
(g4
(I0
tS'b'
tRp16
(I1
(I2
tg7
I00
S'\xb6ab?K\xf2\xec='
tbtp17
a(S'/data/ad6813/pipe-data/BlueboxTemp/198121.jpg'
p18
g3
(g4
(I0
tS'b'
tRp19
(I1
(I2
tg7
I00
S'\xae\xbab?\x96*\xea='
tbtp20
a(S'/data/ad6813/pipe-data/BlueboxTemp/198122.jpg'
p21
g3
(g4
(I0
tS'b'
tRp22
(I1
(I2
tg7
I00
S'zcg?+\xe4\xc4='
tbtp23
a(S'/data/ad6813/pipe-data/BlueboxTemp/198132.jpg'
p24
g3
(g4
(I0
tS'b'
tRp25
(I1
(I2
tg7
I00
S'M\xcc|?\x8d\xecL<'
tbtp26
a(S'/data/ad6813/pipe-data/BlueboxTemp/198134.jpg'
p27
g3
(g4
(I0
tS'b'
tRp28
(I1
(I2
tg7
I00
S'\x12\xf1x?\xa8\xdd\xe1<'
tbtp29
a(S'/data/ad6813/pipe-data/BlueboxTemp/198140.jpg'
p30
g3
(g4
(I0
tS'b'
tRp31
(I1
(I2
tg7
I00
S'\xe8Fn?\xbb\xc8\x8d='
tbtp32
a(S'/data/ad6813/pipe-data/BlueboxTemp/198143.jpg'
p33
g3
(g4
(I0
tS'b'
tRp34
(I1
(I2
tg7
I00
S'\x8a\xa5^?\xdai\x05>'
tbtp35
a(S'/data/ad6813/pipe-data/BlueboxTemp/198164.jpg'
p36
g3
(g4
(I0
tS'b'
tRp37
(I1
(I2
tg7
I00
S'\n\x1a"?\xed\xcb\xbb>'
tbtp38
a(S'/data/ad6813/pipe-data/BlueboxTemp/198170.jpg'
p39
g3
(g4
(I0
tS'b'
tRp40
(I1
(I2
tg7
I00
S'u\xc0_?-\xfe\x00>'
tbtp41
a(S'/data/ad6813/pipe-data/BlueboxTemp/198174.jpg'
p42
g3
(g4
(I0
tS'b'
tRp43
(I1
(I2
tg7
I00
S'\xb8\x94S?\x1d\xad1>'
tbtp44
a(S'/data/ad6813/pipe-data/BlueboxTemp/198176.jpg'
p45
g3
(g4
(I0
tS'b'
tRp46
(I1
(I2
tg7
I00
S'\xc8\xd4v?~\xb3\x12='
tbtp47
a(S'/data/ad6813/pipe-data/BlueboxTemp/198183.jpg'
p48
g3
(g4
(I0
tS'b'
tRp49
(I1
(I2
tg7
I00
S'\xa0\x82v?\xfb\xd5\x17='
tbtp50
a(S'/data/ad6813/pipe-data/BlueboxTemp/198190.jpg'
p51
g3
(g4
(I0
tS'b'
tRp52
(I1
(I2
tg7
I00
S'\xf3bc?e\xe8\xe4='
tbtp53
a(S'/data/ad6813/pipe-data/BlueboxTemp/198210.jpg'
p54
g3
(g4
(I0
tS'b'
tRp55
(I1
(I2
tg7
I00
S'\xf51/?\x16\x9c\xa1>'
tbtp56
a(S'/data/ad6813/pipe-data/BlueboxTemp/198211.jpg'
p57
g3
(g4
(I0
tS'b'
tRp58
(I1
(I2
tg7
I00
S'KD\x12?jw\xdb>'
tbtp59
a(S'/data/ad6813/pipe-data/BlueboxTemp/198214.jpg'
p60
g3
(g4
(I0
tS'b'
tRp61
(I1
(I2
tg7
I00
S'\xaa*&?\xab\xaa\xb3>'
tbtp62
a(S'/data/ad6813/pipe-data/BlueboxTemp/198215.jpg'
p63
g3
(g4
(I0
tS'b'
tRp64
(I1
(I2
tg7
I00
S'\xe0_o?\xfd\x00\x85='
tbtp65
a(S'/data/ad6813/pipe-data/BlueboxTemp/198218.jpg'
p66
g3
(g4
(I0
tS'b'
tRp67
(I1
(I2
tg7
I00
S'\x9a\rh?6\x93\xbf='
tbtp68
a(S'/data/ad6813/pipe-data/BlueboxTemp/198219.jpg'
p69
g3
(g4
(I0
tS'b'
tRp70
(I1
(I2
tg7
I00
S'p@`?}\xfc\xfd='
tbtp71
a(S'/data/ad6813/pipe-data/BlueboxTemp/198222.jpg'
p72
g3
(g4
(I0
tS'b'
tRp73
(I1
(I2
tg7
I00
S'Bb\x1e?|;\xc3>'
tbtp74
a(S'/data/ad6813/pipe-data/BlueboxTemp/198223.jpg'
p75
g3
(g4
(I0
tS'b'
tRp76
(I1
(I2
tg7
I00
S'\xf0w\x1f?\x1f\x10\xc1>'
tbtp77
a(S'/data/ad6813/pipe-data/BlueboxTemp/198226.jpg'
p78
g3
(g4
(I0
tS'b'
tRp79
(I1
(I2
tg7
I00
S':\xb8@?\x15\x1f}>'
tbtp80
a(S'/data/ad6813/pipe-data/BlueboxTemp/198228.jpg'
p81
g3
(g4
(I0
tS'b'
tRp82
(I1
(I2
tg7
I00
S'\xb5\xabP?*Q=>'
tbtp83
a(S'/data/ad6813/pipe-data/BlueboxTemp/198229.jpg'
p84
g3
(g4
(I0
tS'b'
tRp85
(I1
(I2
tg7
I00
S'#r^?u7\x06>'
tbtp86
a(S'/data/ad6813/pipe-data/BlueboxTemp/198239.jpg'
p87
g3
(g4
(I0
tS'b'
tRp88
(I1
(I2
tg7
I00
S'+\xc7j?\x9d\xc6\xa9='
tbtp89
a(S'/data/ad6813/pipe-data/BlueboxTemp/198242.jpg'
p90
g3
(g4
(I0
tS'b'
tRp91
(I1
(I2
tg7
I00
S'\x03\xae|?\x06\x7fT<'
tbtp92
a(S'/data/ad6813/pipe-data/BlueboxTemp/198245.jpg'
p93
g3
(g4
(I0
tS'b'
tRp94
(I1
(I2
tg7
I00
S'Z\x1am?9-\x97='
tbtp95
a(S'/data/ad6813/pipe-data/BlueboxTemp/198249.jpg'
p96
g3
(g4
(I0
tS'b'
tRp97
(I1
(I2
tg7
I00
S'V\xd7U?\xa2\xa2(>'
tbtp98
a(S'/data/ad6813/pipe-data/BlueboxTemp/198262.jpg'
p99
g3
(g4
(I0
tS'b'
tRp100
(I1
(I2
tg7
I00
S'\xb6\x16p?\xb0\x94~='
tbtp101
a(S'/data/ad6813/pipe-data/BlueboxTemp/198265.jpg'
p102
g3
(g4
(I0
tS'b'
tRp103
(I1
(I2
tg7
I00
S'\x88\x9d~?\xea;\xb1;'
tbtp104
a(S'/data/ad6813/pipe-data/BlueboxTemp/198270.jpg'
p105
g3
(g4
(I0
tS'b'
tRp106
(I1
(I2
tg7
I00
S"\x0e'\x7f?#\xf2X;"
tbtp107
a(S'/data/ad6813/pipe-data/BlueboxTemp/198271.jpg'
p108
g3
(g4
(I0
tS'b'
tRp109
(I1
(I2
tg7
I00
S'\xeb\xd6O?S\xa4@>'
tbtp110
a(S'/data/ad6813/pipe-data/BlueboxTemp/198280.jpg'
p111
g3
(g4
(I0
tS'b'
tRp112
(I1
(I2
tg7
I00
S'-mU?NK*>'
tbtp113
a(S'/data/ad6813/pipe-data/BlueboxTemp/198291.jpg'
p114
g3
(g4
(I0
tS'b'
tRp115
(I1
(I2
tg7
I00
S'\xa1\x85B?}\xe9u>'
tbtp116
a(S'/data/ad6813/pipe-data/BlueboxTemp/198297.jpg'
p117
g3
(g4
(I0
tS'b'
tRp118
(I1
(I2
tg7
I00
S'3\xacv?\xe2<\x15='
tbtp119
a(S'/data/ad6813/pipe-data/BlueboxTemp/198307.jpg'
p120
g3
(g4
(I0
tS'b'
tRp121
(I1
(I2
tg7
I00
S'\x92/X?\xb6A\x1f>'
tbtp122
a(S'/data/ad6813/pipe-data/BlueboxTemp/198310.jpg'
p123
g3
(g4
(I0
tS'b'
tRp124
(I1
(I2
tg7
I00
S'\xea\xc2{?\xdf\xa2\x87<'
tbtp125
a(S'/data/ad6813/pipe-data/BlueboxTemp/198311.jpg'
p126
g3
(g4
(I0
tS'b'
tRp127
(I1
(I2
tg7
I00
S'\xe3\xd0x?\xab\xe3\xe5<'
tbtp128
a(S'/data/ad6813/pipe-data/BlueboxTemp/198317.jpg'
p129
g3
(g4
(I0
tS'b'
tRp130
(I1
(I2
tg7
I00
S'83}?[23<'
tbtp131
a(S'/data/ad6813/pipe-data/BlueboxTemp/198321.jpg'
p132
g3
(g4
(I0
tS'b'
tRp133
(I1
(I2
tg7
I00
S'7\x94D?"\xafm>'
tbtp134
a(S'/data/ad6813/pipe-data/BlueboxTemp/198322.jpg'
p135
g3
(g4
(I0
tS'b'
tRp136
(I1
(I2
tg7
I00
S'h\xed}?+\xa6\x04<'
tbtp137
a(S'/data/ad6813/pipe-data/BlueboxTemp/198328.jpg'
p138
g3
(g4
(I0
tS'b'
tRp139
(I1
(I2
tg7
I00
S'\xb8tk?>Z\xa4='
tbtp140
a(S'/data/ad6813/pipe-data/BlueboxTemp/198330.jpg'
p141
g3
(g4
(I0
tS'b'
tRp142
(I1
(I2
tg7
I00
S'\xf2\xb7e?r@\xd2='
tbtp143
a(S'/data/ad6813/pipe-data/BlueboxTemp/198331.jpg'
p144
g3
(g4
(I0
tS'b'
tRp145
(I1
(I2
tg7
I00
S'\xbaFw?j\x94\x0b='
tbtp146
a(S'/data/ad6813/pipe-data/BlueboxTemp/198339.jpg'
p147
g3
(g4
(I0
tS'b'
tRp148
(I1
(I2
tg7
I00
S'#\x80z?\xb0\xfb\xaf<'
tbtp149
a(S'/data/ad6813/pipe-data/BlueboxTemp/198344.jpg'
p150
g3
(g4
(I0
tS'b'
tRp151
(I1
(I2
tg7
I00
S'\x92F\xf7>\xb7\\\x04?'
tbtp152
a(S'/data/ad6813/pipe-data/BlueboxTemp/198355.jpg'
p153
g3
(g4
(I0
tS'b'
tRp154
(I1
(I2
tg7
I00
S'\xa0\x9cV?\x80\x8d%>'
tbtp155
a(S'/data/ad6813/pipe-data/BlueboxTemp/198357.jpg'
p156
g3
(g4
(I0
tS'b'
tRp157
(I1
(I2
tg7
I00
S'\x8e\nk?\x97\xab\xa7='
tbtp158
a(S'/data/ad6813/pipe-data/BlueboxTemp/198360.jpg'
p159
g3
(g4
(I0
tS'b'
tRp160
(I1
(I2
tg7
I00
S'\x1e\xc4c?\n\xdf\xe1='
tbtp161
a(S'/data/ad6813/pipe-data/BlueboxTemp/198363.jpg'
p162
g3
(g4
(I0
tS'b'
tRp163
(I1
(I2
tg7
I00
S'\x06\xf0n?\xda\x7f\x88='
tbtp164
a(S'/data/ad6813/pipe-data/BlueboxTemp/198364.jpg'
p165
g3
(g4
(I0
tS'b'
tRp166
(I1
(I2
tg7
I00
S'\x06\x91u?\x8a\xef&='
tbtp167
a(S'/data/ad6813/pipe-data/BlueboxTemp/198365.jpg'
p168
g3
(g4
(I0
tS'b'
tRp169
(I1
(I2
tg7
I00
S'\xbbif?#\xb2\xcc='
tbtp170
a(S'/data/ad6813/pipe-data/BlueboxTemp/198368.jpg'
p171
g3
(g4
(I0
tS'b'
tRp172
(I1
(I2
tg7
I00
S'\xea\x10l?\xaax\x9f='
tbtp173
a(S'/data/ad6813/pipe-data/BlueboxTemp/198373.jpg'
p174
g3
(g4
(I0
tS'b'
tRp175
(I1
(I2
tg7
I00
S'M\xcc\xb6>\xda\x99$?'
tbtp176
a(S'/data/ad6813/pipe-data/BlueboxTemp/198377.jpg'
p177
g3
(g4
(I0
tS'b'
tRp178
(I1
(I2
tg7
I00
S'\xe3\x13\x7f?\xae\x1cl;'
tbtp179
a(S'/data/ad6813/pipe-data/BlueboxTemp/198379.jpg'
p180
g3
(g4
(I0
tS'b'
tRp181
(I1
(I2
tg7
I00
S'p\xf0m?~|\x90='
tbtp182
a(S'/data/ad6813/pipe-data/BlueboxTemp/198382.jpg'
p183
g3
(g4
(I0
tS'b'
tRp184
(I1
(I2
tg7
I00
S'\x86%|?r\x9ev<'
tbtp185
a(S'/data/ad6813/pipe-data/BlueboxTemp/198388.jpg'
p186
g3
(g4
(I0
tS'b'
tRp187
(I1
(I2
tg7
I00
S'\xbdM`?\x16\x92\xfd='
tbtp188
a(S'/data/ad6813/pipe-data/BlueboxTemp/198389.jpg'
p189
g3
(g4
(I0
tS'b'
tRp190
(I1
(I2
tg7
I00
S'\x1d\xbe}?\xcfx\x10<'
tbtp191
a(S'/data/ad6813/pipe-data/BlueboxTemp/198395.jpg'
p192
g3
(g4
(I0
tS'b'
tRp193
(I1
(I2
tg7
I00
S'\xf5\xa7o?R\xc0\x82='
tbtp194
a(S'/data/ad6813/pipe-data/BlueboxTemp/198396.jpg'
p195
g3
(g4
(I0
tS'b'
tRp196
(I1
(I2
tg7
I00
S'J\x96w?]\x9b\x06='
tbtp197
a(S'/data/ad6813/pipe-data/BlueboxTemp/198398.jpg'
p198
g3
(g4
(I0
tS'b'
tRp199
(I1
(I2
tg7
I00
S'\x83\xb5\x7f?\r\xfb\x94:'
tbtp200
a(S'/data/ad6813/pipe-data/BlueboxTemp/198407.jpg'
p201
g3
(g4
(I0
tS'b'
tRp202
(I1
(I2
tg7
I00
S'\x86"f?\xce\xeb\xce='
tbtp203
a(S'/data/ad6813/pipe-data/BlueboxTemp/198410.jpg'
p204
g3
(g4
(I0
tS'b'
tRp205
(I1
(I2
tg7
I00
S'V\xeao?J\xad\x80='
tbtp206
a(S'/data/ad6813/pipe-data/BlueboxTemp/198411.jpg'
p207
g3
(g4
(I0
tS'b'
tRp208
(I1
(I2
tg7
I00
S'\xf8(l?M\xb8\x9e='
tbtp209
a(S'/data/ad6813/pipe-data/BlueboxTemp/198415.jpg'
p210
g3
(g4
(I0
tS'b'
tRp211
(I1
(I2
tg7
I00
S'+sS?T32>'
tbtp212
a(S'/data/ad6813/pipe-data/BlueboxTemp/198442.jpg'
p213
g3
(g4
(I0
tS'b'
tRp214
(I1
(I2
tg7
I00
S'3J_?5\xd7\x02>'
tbtp215
a(S'/data/ad6813/pipe-data/BlueboxTemp/198456.jpg'
p216
g3
(g4
(I0
tS'b'
tRp217
(I1
(I2
tg7
I00
S'\xe2m\x17?=$\xd1>'
tbtp218
a(S'/data/ad6813/pipe-data/BlueboxTemp/198470.jpg'
p219
g3
(g4
(I0
tS'b'
tRp220
(I1
(I2
tg7
I00
S'&8a?\xce>\xf6='
tbtp221
a(S'/data/ad6813/pipe-data/BlueboxTemp/198471.jpg'
p222
g3
(g4
(I0
tS'b'
tRp223
(I1
(I2
tg7
I00
S';\xb0\x0b?\x8b\x9f\xe8>'
tbtp224
a(S'/data/ad6813/pipe-data/BlueboxTemp/198474.jpg'
p225
g3
(g4
(I0
tS'b'
tRp226
(I1
(I2
tg7
I00
S'3\xfat?\xde\\0='
tbtp227
a(S'/data/ad6813/pipe-data/BlueboxTemp/198475.jpg'
p228
g3
(g4
(I0
tS'b'
tRp229
(I1
(I2
tg7
I00
S'\x1e\xd0r?#\xfeR='
tbtp230
a(S'/data/ad6813/pipe-data/BlueboxTemp/198476.jpg'
p231
g3
(g4
(I0
tS'b'
tRp232
(I1
(I2
tg7
I00
S'\x83|y?\xabo\xd0<'
tbtp233
a(S'/data/ad6813/pipe-data/BlueboxTemp/198479.jpg'
p234
g3
(g4
(I0
tS'b'
tRp235
(I1
(I2
tg7
I00
S"Z\x13V?\x97\xb2'>"
tbtp236
a(S'/data/ad6813/pipe-data/BlueboxTemp/198481.jpg'
p237
g3
(g4
(I0
tS'b'
tRp238
(I1
(I2
tg7
I00
S'\xcd\xacy?\x96f\xca<'
tbtp239
a(S'/data/ad6813/pipe-data/BlueboxTemp/198509.jpg'
p240
g3
(g4
(I0
tS'b'
tRp241
(I1
(I2
tg7
I00
S'm\xd2k?\x9al\xa1='
tbtp242
a(S'/data/ad6813/pipe-data/BlueboxTemp/198518.jpg'
p243
g3
(g4
(I0
tS'b'
tRp244
(I1
(I2
tg7
I00
S'@\xf6p?\xf8\x9bp='
tbtp245
a(S'/data/ad6813/pipe-data/BlueboxTemp/198519.jpg'
p246
g3
(g4
(I0
tS'b'
tRp247
(I1
(I2
tg7
I00
S'\xed\xadq?(!e='
tbtp248
a(S'/data/ad6813/pipe-data/BlueboxTemp/198528.jpg'
p249
g3
(g4
(I0
tS'b'
tRp250
(I1
(I2
tg7
I00
S'u\x00}?\xb6\xe2?<'
tbtp251
a(S'/data/ad6813/pipe-data/BlueboxTemp/198529.jpg'
p252
g3
(g4
(I0
tS'b'
tRp253
(I1
(I2
tg7
I00
S'\x1a\xc9u?Un#='
tbtp254
a(S'/data/ad6813/pipe-data/BlueboxTemp/198532.jpg'
p255
g3
(g4
(I0
tS'b'
tRp256
(I1
(I2
tg7
I00
S'\xea\xc8\\?Y\xdc\x0c>'
tbtp257
a(S'/data/ad6813/pipe-data/BlueboxTemp/198540.jpg'
p258
g3
(g4
(I0
tS'b'
tRp259
(I1
(I2
tg7
I00
S'j-q?f)m='
tbtp260
a(S'/data/ad6813/pipe-data/BlueboxTemp/198556.jpg'
p261
g3
(g4
(I0
tS'b'
tRp262
(I1
(I2
tg7
I00
S'\xfe\xe4)?\x036\xac>'
tbtp263
a(S'/data/ad6813/pipe-data/BlueboxTemp/198600.jpg'
p264
g3
(g4
(I0
tS'b'
tRp265
(I1
(I2
tg7
I00
S'\x80G\xf0>?\xdc\x07?'
tbtp266
a(S'/data/ad6813/pipe-data/BlueboxTemp/198601.jpg'
p267
g3
(g4
(I0
tS'b'
tRp268
(I1
(I2
tg7
I00
S'fOw?\xaa\t\x0b='
tbtp269
a(S'/data/ad6813/pipe-data/BlueboxTemp/198604.jpg'
p270
g3
(g4
(I0
tS'b'
tRp271
(I1
(I2
tg7
I00
S'\x02dl>\xfe\xe6D?'
tbtp272
a(S'/data/ad6813/pipe-data/BlueboxTemp/198608.jpg'
p273
g3
(g4
(I0
tS'b'
tRp274
(I1
(I2
tg7
I00
S'\xc5\xe7l?\xe0\xc1\x98='
tbtp275
a(S'/data/ad6813/pipe-data/BlueboxTemp/198610.jpg'
p276
g3
(g4
(I0
tS'b'
tRp277
(I1
(I2
tg7
I00
S'\xdd\xa1_?\x89x\x01>'
tbtp278
a(S'/data/ad6813/pipe-data/BlueboxTemp/198620.jpg'
p279
g3
(g4
(I0
tS'b'
tRp280
(I1
(I2
tg7
I00
S'\xb52/?\x96\x9a\xa1>'
tbtp281
a(S'/data/ad6813/pipe-data/BlueboxTemp/198622.jpg'
p282
g3
(g4
(I0
tS'b'
tRp283
(I1
(I2
tg7
I00
S'\xdd\x94_?\x90\xac\x01>'
tbtp284
a(S'/data/ad6813/pipe-data/BlueboxTemp/198627.jpg'
p285
g3
(g4
(I0
tS'b'
tRp286
(I1
(I2
tg7
I00
S'\xd0ax?#\xc6\xf3<'
tbtp287
a(S'/data/ad6813/pipe-data/BlueboxTemp/198629.jpg'
p288
g3
(g4
(I0
tS'b'
tRp289
(I1
(I2
tg7
I00
S'\xfe4o?\x0eX\x86='
tbtp290
a(S'/data/ad6813/pipe-data/BlueboxTemp/198630.jpg'
p291
g3
(g4
(I0
tS'b'
tRp292
(I1
(I2
tg7
I00
S'\x9e\xef`?\r\x83\xf8='
tbtp293
a(S'/data/ad6813/pipe-data/BlueboxTemp/198637.jpg'
p294
g3
(g4
(I0
tS'b'
tRp295
(I1
(I2
tg7
I00
S'\xa5Yf?\xe32\xcd='
tbtp296
a(S'/data/ad6813/pipe-data/BlueboxTemp/198638.jpg'
p297
g3
(g4
(I0
tS'b'
tRp298
(I1
(I2
tg7
I00
S'\xa0\xa7n?\x06\xc3\x8a='
tbtp299
a(S'/data/ad6813/pipe-data/BlueboxTemp/198640.jpg'
p300
g3
(g4
(I0
tS'b'
tRp301
(I1
(I2
tg7
I00
S'c0o?\xe7|\x86='
tbtp302
a(S'/data/ad6813/pipe-data/BlueboxTemp/198653.jpg'
p303
g3
(g4
(I0
tS'b'
tRp304
(I1
(I2
tg7
I00
S'\n\xcbn?\xae\xa7\x89='
tbtp305
a(S'/data/ad6813/pipe-data/BlueboxTemp/198663.jpg'
p306
g3
(g4
(I0
tS'b'
tRp307
(I1
(I2
tg7
I00
S'n/_?FB\x03>'
tbtp308
a(S'/data/ad6813/pipe-data/BlueboxTemp/198664.jpg'
p309
g3
(g4
(I0
tS'b'
tRp310
(I1
(I2
tg7
I00
S'jX\\?Y\x9e\x0e>'
tbtp311
a(S'/data/ad6813/pipe-data/BlueboxTemp/198668.jpg'
p312
g3
(g4
(I0
tS'b'
tRp313
(I1
(I2
tg7
I00
S'\xc3\x9fb?\xe3\x01\xeb='
tbtp314
a(S'/data/ad6813/pipe-data/BlueboxTemp/198670.jpg'
p315
g3
(g4
(I0
tS'b'
tRp316
(I1
(I2
tg7
I00
S'\x1dxA?\x8a\x1fz>'
tbtp317
a(S'/data/ad6813/pipe-data/BlueboxTemp/198679.jpg'
p318
g3
(g4
(I0
tS'b'
tRp319
(I1
(I2
tg7
I00
S'\x1e\xdeT?\x83\x87,>'
tbtp320
a(S'/data/ad6813/pipe-data/BlueboxTemp/198684.jpg'
p321
g3
(g4
(I0
tS'b'
tRp322
(I1
(I2
tg7
I00
S'\xbe\x89??\x84\xec\x80>'
tbtp323
a(S'/data/ad6813/pipe-data/BlueboxTemp/198687.jpg'
p324
g3
(g4
(I0
tS'b'
tRp325
(I1
(I2
tg7
I00
S'\xab\x9dw?U%\x06='
tbtp326
a(S'/data/ad6813/pipe-data/BlueboxTemp/198688.jpg'
p327
g3
(g4
(I0
tS'b'
tRp328
(I1
(I2
tg7
I00
S'\rNb?\xa0\x8f\xed='
tbtp329
a(S'/data/ad6813/pipe-data/BlueboxTemp/198705.jpg'
p330
g3
(g4
(I0
tS'b'
tRp331
(I1
(I2
tg7
I00
S'\xfb\xa0b?#\xf8\xea='
tbtp332
a(S'/data/ad6813/pipe-data/BlueboxTemp/198719.jpg'
p333
g3
(g4
(I0
tS'b'
tRp334
(I1
(I2
tg7
I00
S'.\x80x?\x1b\xfa\xef<'
tbtp335
a(S'/data/ad6813/pipe-data/BlueboxTemp/198721.jpg'
p336
g3
(g4
(I0
tS'b'
tRp337
(I1
(I2
tg7
I00
S'"\x1aV?z\x97\'>'
tbtp338
a(S'/data/ad6813/pipe-data/BlueboxTemp/198741.jpg'
p339
g3
(g4
(I0
tS'b'
tRp340
(I1
(I2
tg7
I00
S'\xb5\x90o?Rz\x83='
tbtp341
a(S'/data/ad6813/pipe-data/BlueboxTemp/198744.jpg'
p342
g3
(g4
(I0
tS'b'
tRp343
(I1
(I2
tg7
I00
S'\xb8\x89j?:\xb2\xab='
tbtp344
a(S'/data/ad6813/pipe-data/BlueboxTemp/198745.jpg'
p345
g3
(g4
(I0
tS'b'
tRp346
(I1
(I2
tg7
I00
S'\x1ea\x0c?\xc3=\xe7>'
tbtp347
a(S'/data/ad6813/pipe-data/BlueboxTemp/198750.jpg'
p348
g3
(g4
(I0
tS'b'
tRp349
(I1
(I2
tg7
I00
S'FYe?\xc35\xd5='
tbtp350
a(S'/data/ad6813/pipe-data/BlueboxTemp/198756.jpg'
p351
g3
(g4
(I0
tS'b'
tRp352
(I1
(I2
tg7
I00
S'U\xdee?S\r\xd1='
tbtp353
a(S'/data/ad6813/pipe-data/BlueboxTemp/198757.jpg'
p354
g3
(g4
(I0
tS'b'
tRp355
(I1
(I2
tg7
I00
S'*^P?X\x87>>'
tbtp356
a(S'/data/ad6813/pipe-data/BlueboxTemp/198761.jpg'
p357
g3
(g4
(I0
tS'b'
tRp358
(I1
(I2
tg7
I00
S'\xbe\xd6m?\x19J\x91='
tbtp359
a(S'/data/ad6813/pipe-data/BlueboxTemp/198763.jpg'
p360
g3
(g4
(I0
tS'b'
tRp361
(I1
(I2
tg7
I00
S'F\x8b4?s\xe9\x96>'
tbtp362
a(S'/data/ad6813/pipe-data/BlueboxTemp/198787.jpg'
p363
g3
(g4
(I0
tS'b'
tRp364
(I1
(I2
tg7
I00
S'\xee\xf2M?C4H>'
tbtp365
a(S'/data/ad6813/pipe-data/BlueboxTemp/198789.jpg'
p366
g3
(g4
(I0
tS'b'
tRp367
(I1
(I2
tg7
I00
S'\xc2\xf9K?\xfe\x18P>'
tbtp368
a(S'/data/ad6813/pipe-data/BlueboxTemp/198795.jpg'
p369
g3
(g4
(I0
tS'b'
tRp370
(I1
(I2
tg7
I00
S'v\xacn?N\x9c\x8a='
tbtp371
a(S'/data/ad6813/pipe-data/BlueboxTemp/198798.jpg'
p372
g3
(g4
(I0
tS'b'
tRp373
(I1
(I2
tg7
I00
S'\x02\xba>?\xfb\x8b\x82>'
tbtp374
a(S'/data/ad6813/pipe-data/BlueboxTemp/198801.jpg'
p375
g3
(g4
(I0
tS'b'
tRp376
(I1
(I2
tg7
I00
S'h\x05s?\x8a\xa9O='
tbtp377
a(S'/data/ad6813/pipe-data/BlueboxTemp/198806.jpg'
p378
g3
(g4
(I0
tS'b'
tRp379
(I1
(I2
tg7
I00
S'}?{?x\x10\x98<'
tbtp380
a(S'/data/ad6813/pipe-data/BlueboxTemp/198819.jpg'
p381
g3
(g4
(I0
tS'b'
tRp382
(I1
(I2
tg7
I00
S'\xc8\x83y?\x16\x87\xcf<'
tbtp383
a(S'/data/ad6813/pipe-data/BlueboxTemp/198822.jpg'
p384
g3
(g4
(I0
tS'b'
tRp385
(I1
(I2
tg7
I00
S'=\xbc|?\xea\xf0P<'
tbtp386
a(S'/data/ad6813/pipe-data/BlueboxTemp/198824.jpg'
p387
g3
(g4
(I0
tS'b'
tRp388
(I1
(I2
tg7
I00
S'\x96\xe8]?\xa5]\x08>'
tbtp389
a(S'/data/ad6813/pipe-data/BlueboxTemp/198826.jpg'
p390
g3
(g4
(I0
tS'b'
tRp391
(I1
(I2
tg7
I00
S'\x8e\xcb^?\xcd\xd1\x04>'
tbtp392
a(S'/data/ad6813/pipe-data/BlueboxTemp/198838.jpg'
p393
g3
(g4
(I0
tS'b'
tRp394
(I1
(I2
tg7
I00
S'\x16\xddm?E\x17\x91='
tbtp395
a(S'/data/ad6813/pipe-data/BlueboxTemp/198847.jpg'
p396
g3
(g4
(I0
tS'b'
tRp397
(I1
(I2
tg7
I00
S'*\x83z?\xe6\x9a\xaf<'
tbtp398
a(S'/data/ad6813/pipe-data/BlueboxTemp/198855.jpg'
p399
g3
(g4
(I0
tS'b'
tRp400
(I1
(I2
tg7
I00
S'h\xf6V?b&$>'
tbtp401
a(S'/data/ad6813/pipe-data/BlueboxTemp/198857.jpg'
p402
g3
(g4
(I0
tS'b'
tRp403
(I1
(I2
tg7
I00
S'\xe6\x96g?\xc7H\xc3='
tbtp404
a(S'/data/ad6813/pipe-data/BlueboxTemp/198862.jpg'
p405
g3
(g4
(I0
tS'b'
tRp406
(I1
(I2
tg7
I00
S'\xa5\xd7`?\xd5B\xf9='
tbtp407
a(S'/data/ad6813/pipe-data/BlueboxTemp/198866.jpg'
p408
g3
(g4
(I0
tS'b'
tRp409
(I1
(I2
tg7
I00
S'\xf4\x81\xb5>\x06?%?'
tbtp410
a(S'/data/ad6813/pipe-data/BlueboxTemp/198870.jpg'
p411
g3
(g4
(I0
tS'b'
tRp412
(I1
(I2
tg7
I00
S'\xd2\xc3Q?\xbb\xf08>'
tbtp413
a(S'/data/ad6813/pipe-data/BlueboxTemp/198872.jpg'
p414
g3
(g4
(I0
tS'b'
tRp415
(I1
(I2
tg7
I00
S'\xe6\x1c[?j\x8c\x13>'
tbtp416
a(S'/data/ad6813/pipe-data/BlueboxTemp/198874.jpg'
p417
g3
(g4
(I0
tS'b'
tRp418
(I1
(I2
tg7
I00
S'\x06X\\?\xe5\x9f\x0e>'
tbtp419
a(S'/data/ad6813/pipe-data/BlueboxTemp/198875.jpg'
p420
g3
(g4
(I0
tS'b'
tRp421
(I1
(I2
tg7
I00
S'\xb6\xbc=?\x92\x86\x84>'
tbtp422
a(S'/data/ad6813/pipe-data/BlueboxTemp/198876.jpg'
p423
g3
(g4
(I0
tS'b'
tRp424
(I1
(I2
tg7
I00
S'\x9b=p?R&|='
tbtp425
a(S'/data/ad6813/pipe-data/BlueboxTemp/198885.jpg'
p426
g3
(g4
(I0
tS'b'
tRp427
(I1
(I2
tg7
I00
S"\x7fl\x16?\x00'\xd3>"
tbtp428
a(S'/data/ad6813/pipe-data/BlueboxTemp/198888.jpg'
p429
g3
(g4
(I0
tS'b'
tRp430
(I1
(I2
tg7
I00
S'\xbd<&?\x88\x86\xb3>'
tbtp431
a(S'/data/ad6813/pipe-data/BlueboxTemp/198899.jpg'
p432
g3
(g4
(I0
tS'b'
tRp433
(I1
(I2
tg7
I00
S'\xef\x9a+?!\xca\xa8>'
tbtp434
a(S'/data/ad6813/pipe-data/BlueboxTemp/198910.jpg'
p435
g3
(g4
(I0
tS'b'
tRp436
(I1
(I2
tg7
I00
S'\x12nE?\xbaGj>'
tbtp437
a(S'/data/ad6813/pipe-data/BlueboxTemp/198916.jpg'
p438
g3
(g4
(I0
tS'b'
tRp439
(I1
(I2
tg7
I00
S'\xcepg?\x92y\xc4='
tbtp440
a(S'/data/ad6813/pipe-data/BlueboxTemp/198918.jpg'
p441
g3
(g4
(I0
tS'b'
tRp442
(I1
(I2
tg7
I00
S'\x88\xf0f?\xbb{\xc8='
tbtp443
a(S'/data/ad6813/pipe-data/BlueboxTemp/198920.jpg'
p444
g3
(g4
(I0
tS'b'
tRp445
(I1
(I2
tg7
I00
S'\xa0\'y?"\x0c\xdb<'
tbtp446
a(S'/data/ad6813/pipe-data/BlueboxTemp/198921.jpg'
p447
g3
(g4
(I0
tS'b'
tRp448
(I1
(I2
tg7
I00
S'\xe3\xddp?\xed!r='
tbtp449
a(S'/data/ad6813/pipe-data/BlueboxTemp/198928.jpg'
p450
g3
(g4
(I0
tS'b'
tRp451
(I1
(I2
tg7
I00
S'MYW?\xce\x9a">'
tbtp452
a(S'/data/ad6813/pipe-data/BlueboxTemp/198934.jpg'
p453
g3
(g4
(I0
tS'b'
tRp454
(I1
(I2
tg7
I00
S'r\xa8Z?4^\x15>'
tbtp455
a(S'/data/ad6813/pipe-data/BlueboxTemp/198941.jpg'
p456
g3
(g4
(I0
tS'b'
tRp457
(I1
(I2
tg7
I00
S'\xe5{Q?p\x10:>'
tbtp458
a(S'/data/ad6813/pipe-data/BlueboxTemp/198949.jpg'
p459
g3
(g4
(I0
tS'b'
tRp460
(I1
(I2
tg7
I00
S'\xd3D~?E\x96\xdd;'
tbtp461
a(S'/data/ad6813/pipe-data/BlueboxTemp/198964.jpg'
p462
g3
(g4
(I0
tS'b'
tRp463
(I1
(I2
tg7
I00
S'\x05\xbbQ?\xf1\x139>'
tbtp464
a(S'/data/ad6813/pipe-data/BlueboxTemp/198969.jpg'
p465
g3
(g4
(I0
tS'b'
tRp466
(I1
(I2
tg7
I00
S'j=_?^\n\x03>'
tbtp467
a(S'/data/ad6813/pipe-data/BlueboxTemp/198978.jpg'
p468
g3
(g4
(I0
tS'b'
tRp469
(I1
(I2
tg7
I00
S'\xb2\xa9z?\xcd\xc9\xaa<'
tbtp470
a(S'/data/ad6813/pipe-data/BlueboxTemp/198986.jpg'
p471
g3
(g4
(I0
tS'b'
tRp472
(I1
(I2
tg7
I00
S'h~y?\xfd2\xd0<'
tbtp473
a(S'/data/ad6813/pipe-data/BlueboxTemp/198987.jpg'
p474
g3
(g4
(I0
tS'b'
tRp475
(I1
(I2
tg7
I00
S'P\x8cy?\x1av\xce<'
tbtp476
a(S'/data/ad6813/pipe-data/BlueboxTemp/198999.jpg'
p477
g3
(g4
(I0
tS'b'
tRp478
(I1
(I2
tg7
I00
S'\xde\xdfv?\x15\x02\x12='
tbtp479
a(S'/data/ad6813/pipe-data/BlueboxTemp/199007.jpg'
p480
g3
(g4
(I0
tS'b'
tRp481
(I1
(I2
tg7
I00
S'\xdc\xf33?H\x18\x98>'
tbtp482
a(S'/data/ad6813/pipe-data/BlueboxTemp/199020.jpg'
p483
g3
(g4
(I0
tS'b'
tRp484
(I1
(I2
tg7
I00
S'\x90b|?>\\g<'
tbtp485
a(S'/data/ad6813/pipe-data/BlueboxTemp/199029.jpg'
p486
g3
(g4
(I0
tS'b'
tRp487
(I1
(I2
tg7
I00
S'\x07\xdd@?\xe5\x8b|>'
tbtp488
a(S'/data/ad6813/pipe-data/BlueboxTemp/199030.jpg'
p489
g3
(g4
(I0
tS'b'
tRp490
(I1
(I2
tg7
I00
S'%\x1e5?\xb7\xc3\x95>'
tbtp491
a(S'/data/ad6813/pipe-data/BlueboxTemp/199036.jpg'
p492
g3
(g4
(I0
tS'b'
tRp493
(I1
(I2
tg7
I00
S'kb\xf1>\xcaN\x07?'
tbtp494
a(S'/data/ad6813/pipe-data/BlueboxTemp/199040.jpg'
p495
g3
(g4
(I0
tS'b'
tRp496
(I1
(I2
tg7
I00
S'(\x0c=?\xb1\xe7\x85>'
tbtp497
a(S'/data/ad6813/pipe-data/BlueboxTemp/199042.jpg'
p498
g3
(g4
(I0
tS'b'
tRp499
(I1
(I2
tg7
I00
S'\x9d\x15B?\x8e\xa9w>'
tbtp500
a(S'/data/ad6813/pipe-data/BlueboxTemp/199046.jpg'
p501
g3
(g4
(I0
tS'b'
tRp502
(I1
(I2
tg7
I00
S'}$q?+\xb8m='
tbtp503
a(S'/data/ad6813/pipe-data/BlueboxTemp/199047.jpg'
p504
g3
(g4
(I0
tS'b'
tRp505
(I1
(I2
tg7
I00
S'#\xb0u?\xd7\xfd$='
tbtp506
a(S'/data/ad6813/pipe-data/BlueboxTemp/199053.jpg'
p507
g3
(g4
(I0
tS'b'
tRp508
(I1
(I2
tg7
I00
S'"\xb1k?\xf4v\xa2='
tbtp509
a(S'/data/ad6813/pipe-data/BlueboxTemp/199061.jpg'
p510
g3
(g4
(I0
tS'b'
tRp511
(I1
(I2
tg7
I00
S'n\xe7C?Fbp>'
tbtp512
a(S'/data/ad6813/pipe-data/BlueboxTemp/199062.jpg'
p513
g3
(g4
(I0
tS'b'
tRp514
(I1
(I2
tg7
I00
S'\x8d\xb0k?\x91{\xa2='
tbtp515
a(S'/data/ad6813/pipe-data/BlueboxTemp/199068.jpg'
p516
g3
(g4
(I0
tS'b'
tRp517
(I1
(I2
tg7
I00
S'F\x8ep?\xae\x1bw='
tbtp518
a(S'/data/ad6813/pipe-data/BlueboxTemp/199069.jpg'
p519
g3
(g4
(I0
tS'b'
tRp520
(I1
(I2
tg7
I00
S'&b\x00?\xb3;\xff>'
tbtp521
a(S'/data/ad6813/pipe-data/BlueboxTemp/199070.jpg'
p522
g3
(g4
(I0
tS'b'
tRp523
(I1
(I2
tg7
I00
S'(\xf0c?\xbd~\xe0='
tbtp524
a(S'/data/ad6813/pipe-data/BlueboxTemp/199084.jpg'
p525
g3
(g4
(I0
tS'b'
tRp526
(I1
(I2
tg7
I00
S'\xa0\x88r?\x00vW='
tbtp527
a(S'/data/ad6813/pipe-data/BlueboxTemp/199097.jpg'
p528
g3
(g4
(I0
tS'b'
tRp529
(I1
(I2
tg7
I00
S'\xde\x08??F\xee\x81>'
tbtp530
a(S'/data/ad6813/pipe-data/BlueboxTemp/199101.jpg'
p531
g3
(g4
(I0
tS'b'
tRp532
(I1
(I2
tg7
I00
S'\xc0\x07\xad> |)?'
tbtp533
a(S'/data/ad6813/pipe-data/BlueboxTemp/199104.jpg'
p534
g3
(g4
(I0
tS'b'
tRp535
(I1
(I2
tg7
I00
S'\xba\x89k?2\xb2\xa3='
tbtp536
a(S'/data/ad6813/pipe-data/BlueboxTemp/199105.jpg'
p537
g3
(g4
(I0
tS'b'
tRp538
(I1
(I2
tg7
I00
S'x@p?\x86\xf8{='
tbtp539
a(S'/data/ad6813/pipe-data/BlueboxTemp/199108.jpg'
p540
g3
(g4
(I0
tS'b'
tRp541
(I1
(I2
tg7
I00
S'\xf2\xf8h?\x7f8\xb8='
tbtp542
a(S'/data/ad6813/pipe-data/BlueboxTemp/199111.jpg'
p543
g3
(g4
(I0
tS'b'
tRp544
(I1
(I2
tg7
I00
S'C\xb4z?yw\xa9<'
tbtp545
a(S'/data/ad6813/pipe-data/BlueboxTemp/199115.jpg'
p546
g3
(g4
(I0
tS'b'
tRp547
(I1
(I2
tg7
I00
S'\xa0\xbem?\xfb\n\x92='
tbtp548
a(S'/data/ad6813/pipe-data/BlueboxTemp/199116.jpg'
p549
g3
(g4
(I0
tS'b'
tRp550
(I1
(I2
tg7
I00
S'\r\xb6q?+\x9fd='
tbtp551
a(S'/data/ad6813/pipe-data/BlueboxTemp/199118.jpg'
p552
g3
(g4
(I0
tS'b'
tRp553
(I1
(I2
tg7
I00
S'\xb5\x1dm?g\x12\x97='
tbtp554
a(S'/data/ad6813/pipe-data/BlueboxTemp/199120.jpg'
p555
g3
(g4
(I0
tS'b'
tRp556
(I1
(I2
tg7
I00
S'\x00\x7fi?\x01\x08\xb4='
tbtp557
a(S'/data/ad6813/pipe-data/BlueboxTemp/199122.jpg'
p558
g3
(g4
(I0
tS'b'
tRp559
(I1
(I2
tg7
I00
S'\xfd\x04\\?\x0b\xec\x0f>'
tbtp560
a(S'/data/ad6813/pipe-data/BlueboxTemp/199126.jpg'
p561
g3
(g4
(I0
tS'b'
tRp562
(I1
(I2
tg7
I00
S"+\r'?\xa9\xe5\xb1>"
tbtp563
a(S'/data/ad6813/pipe-data/BlueboxTemp/199127.jpg'
p564
g3
(g4
(I0
tS'b'
tRp565
(I1
(I2
tg7
I00
S'\xab\x89o?\x9a\xb2\x83='
tbtp566
a(S'/data/ad6813/pipe-data/BlueboxTemp/199130.jpg'
p567
g3
(g4
(I0
tS'b'
tRp568
(I1
(I2
tg7
I00
S'\x03\xbe\x0c?\xfa\x83\xe6>'
tbtp569
a(S'/data/ad6813/pipe-data/BlueboxTemp/199131.jpg'
p570
g3
(g4
(I0
tS'b'
tRp571
(I1
(I2
tg7
I00
S'\xc8\xb6T?\xe4$->'
tbtp572
a(S'/data/ad6813/pipe-data/BlueboxTemp/199136.jpg'
p573
g3
(g4
(I0
tS'b'
tRp574
(I1
(I2
tg7
I00
S'>\x1cu?\x17<.='
tbtp575
a(S'/data/ad6813/pipe-data/BlueboxTemp/199138.jpg'
p576
g3
(g4
(I0
tS'b'
tRp577
(I1
(I2
tg7
I00
S'\xb6\ry?JI\xde<'
tbtp578
a(S'/data/ad6813/pipe-data/BlueboxTemp/199139.jpg'
p579
g3
(g4
(I0
tS'b'
tRp580
(I1
(I2
tg7
I00
S'z\xf0x?\xf8\xf0\xe1<'
tbtp581
a(S'/data/ad6813/pipe-data/BlueboxTemp/199145.jpg'
p582
g3
(g4
(I0
tS'b'
tRp583
(I1
(I2
tg7
I00
S'\xe5%a?\xde\xd0\xf6='
tbtp584
a(S'/data/ad6813/pipe-data/BlueboxTemp/199146.jpg'
p585
g3
(g4
(I0
tS'b'
tRp586
(I1
(I2
tg7
I00
S'\xdd\x11[?\x8e\xb8\x13>'
tbtp587
a(S'/data/ad6813/pipe-data/BlueboxTemp/199148.jpg'
p588
g3
(g4
(I0
tS'b'
tRp589
(I1
(I2
tg7
I00
S'\xd5\xe2b?R\xe9\xe8='
tbtp590
a(S'/data/ad6813/pipe-data/BlueboxTemp/199167.jpg'
p591
g3
(g4
(I0
tS'b'
tRp592
(I1
(I2
tg7
I00
S'\xce5u?\x10\xa3,='
tbtp593
a(S'/data/ad6813/pipe-data/BlueboxTemp/199176.jpg'
p594
g3
(g4
(I0
tS'b'
tRp595
(I1
(I2
tg7
I00
S'\x96\x83o?J\xe3\x83='
tbtp596
a(S'/data/ad6813/pipe-data/BlueboxTemp/199180.jpg'
p597
g3
(g4
(I0
tS'b'
tRp598
(I1
(I2
tg7
I00
S'u\xf0V?.>$>'
tbtp599
a(S'/data/ad6813/pipe-data/BlueboxTemp/199181.jpg'
p600
g3
(g4
(I0
tS'b'
tRp601
(I1
(I2
tg7
I00
S'\x16\xf6\x15>{\x82Z?'
tbtp602
a(S'/data/ad6813/pipe-data/BlueboxTemp/199194.jpg'
p603
g3
(g4
(I0
tS'b'
tRp604
(I1
(I2
tg7
I00
S'\xf0\xb4|?\xa8\xc3R<'
tbtp605
a(S'/data/ad6813/pipe-data/BlueboxTemp/199195.jpg'
p606
g3
(g4
(I0
tS'b'
tRp607
(I1
(I2
tg7
I00
S'\x96\x86p?\xae\x96w='
tbtp608
a(S'/data/ad6813/pipe-data/BlueboxTemp/199204.jpg'
p609
g3
(g4
(I0
tS'b'
tRp610
(I1
(I2
tg7
I00
S'#\xe5N?mkD>'
tbtp611
a(S'/data/ad6813/pipe-data/BlueboxTemp/199205.jpg'
p612
g3
(g4
(I0
tS'b'
tRp613
(I1
(I2
tg7
I00
S'0\xd0Z?8\xbf\x14>'
tbtp614
a(S'/data/ad6813/pipe-data/BlueboxTemp/199207.jpg'
p615
g3
(g4
(I0
tS'b'
tRp616
(I1
(I2
tg7
I00
S'\xdd7Z?\x87 \x17>'
tbtp617
a(S'/data/ad6813/pipe-data/BlueboxTemp/199211.jpg'
p618
g3
(g4
(I0
tS'b'
tRp619
(I1
(I2
tg7
I00
S'\xb2;G?=\x11c>'
tbtp620
a(S'/data/ad6813/pipe-data/BlueboxTemp/199221.jpg'
p621
g3
(g4
(I0
tS'b'
tRp622
(I1
(I2
tg7
I00
S'\x84\xb2K?\xf25Q>'
tbtp623
a(S'/data/ad6813/pipe-data/BlueboxTemp/199222.jpg'
p624
g3
(g4
(I0
tS'b'
tRp625
(I1
(I2
tg7
I00
S'\\\xd94?GM\x96>'
tbtp626
a(S'/data/ad6813/pipe-data/BlueboxTemp/199228.jpg'
p627
g3
(g4
(I0
tS'b'
tRp628
(I1
(I2
tg7
I00
S'\x9b\x1aK?\x95\x95S>'
tbtp629
a(S'/data/ad6813/pipe-data/BlueboxTemp/199229.jpg'
p630
g3
(g4
(I0
tS'b'
tRp631
(I1
(I2
tg7
I00
S'\xc5\xa4p?\xbe\xb3u='
tbtp632
a(S'/data/ad6813/pipe-data/BlueboxTemp/199233.jpg'
p633
g3
(g4
(I0
tS'b'
tRp634
(I1
(I2
tg7
I00
S'6\xd2x?+\xb9\xe5<'
tbtp635
a(S'/data/ad6813/pipe-data/BlueboxTemp/199235.jpg'
p636
g3
(g4
(I0
tS'b'
tRp637
(I1
(I2
tg7
I00
S'^`~?\xd6\xd0\xcf;'
tbtp638
a(S'/data/ad6813/pipe-data/BlueboxTemp/199242.jpg'
p639
g3
(g4
(I0
tS'b'
tRp640
(I1
(I2
tg7
I00
S'\x13Uu?\xde\xae*='
tbtp641
a(S'/data/ad6813/pipe-data/BlueboxTemp/199243.jpg'
p642
g3
(g4
(I0
tS'b'
tRp643
(I1
(I2
tg7
I00
S'\x96IG?\xa5\xd9b>'
tbtp644
a(S'/data/ad6813/pipe-data/BlueboxTemp/199246.jpg'
p645
g3
(g4
(I0
tS'b'
tRp646
(I1
(I2
tg7
I00
S'\x02,Z?\xfeO\x17>'
tbtp647
a(S'/data/ad6813/pipe-data/BlueboxTemp/199248.jpg'
p648
g3
(g4
(I0
tS'b'
tRp649
(I1
(I2
tg7
I00
S'\xc3\xd7V?\xf8\xa0$>'
tbtp650
a(S'/data/ad6813/pipe-data/BlueboxTemp/199249.jpg'
p651
g3
(g4
(I0
tS'b'
tRp652
(I1
(I2
tg7
I00
S'T\xbd\x13?V\x85\xd8>'
tbtp653
a(S'/data/ad6813/pipe-data/BlueboxTemp/199262.jpg'
p654
g3
(g4
(I0
tS'b'
tRp655
(I1
(I2
tg7
I00
S'&$\xa2>\xed\xed.?'
tbtp656
a(S'/data/ad6813/pipe-data/BlueboxTemp/199266.jpg'
p657
g3
(g4
(I0
tS'b'
tRp658
(I1
(I2
tg7
I00
S'\x1b\xf6`?#O\xf8='
tbtp659
a(S'/data/ad6813/pipe-data/BlueboxTemp/199278.jpg'
p660
g3
(g4
(I0
tS'b'
tRp661
(I1
(I2
tg7
I00
S'\xc0MB?\xfb\xc8v>'
tbtp662
a(S'/data/ad6813/pipe-data/BlueboxTemp/199284.jpg'
p663
g3
(g4
(I0
tS'b'
tRp664
(I1
(I2
tg7
I00
S'"/r?\xf2\r]='
tbtp665
a(S'/data/ad6813/pipe-data/BlueboxTemp/199286.jpg'
p666
g3
(g4
(I0
tS'b'
tRp667
(I1
(I2
tg7
I00
S'\xfd\x98N?\t\x9cE>'
tbtp668
a(S'/data/ad6813/pipe-data/BlueboxTemp/199287.jpg'
p669
g3
(g4
(I0
tS'b'
tRp670
(I1
(I2
tg7
I00
S'\\\x97G?\x90\xa2a>'
tbtp671
a(S'/data/ad6813/pipe-data/BlueboxTemp/199288.jpg'
p672
g3
(g4
(I0
tS'b'
tRp673
(I1
(I2
tg7
I00
S'\xe2\x95Q?x\xa89>'
tbtp674
a(S'/data/ad6813/pipe-data/BlueboxTemp/199327.jpg'
p675
g3
(g4
(I0
tS'b'
tRp676
(I1
(I2
tg7
I00
S'\xf1w\x04? \x10\xf7>'
tbtp677
a(S'/data/ad6813/pipe-data/BlueboxTemp/199328.jpg'
p678
g3
(g4
(I0
tS'b'
tRp679
(I1
(I2
tg7
I00
S'\xae\xe3\x8a>)\x8e:?'
tbtp680
a(S'/data/ad6813/pipe-data/BlueboxTemp/199354.jpg'
p681
g3
(g4
(I0
tS'b'
tRp682
(I1
(I2
tg7
I00
S'\x83\xd8x?]\xef\xe4<'
tbtp683
a(S'/data/ad6813/pipe-data/BlueboxTemp/199359.jpg'
p684
g3
(g4
(I0
tS'b'
tRp685
(I1
(I2
tg7
I00
S'\x9f;\x18?\xc2\x88\xcf>'
tbtp686
a(S'/data/ad6813/pipe-data/BlueboxTemp/199360.jpg'
p687
g3
(g4
(I0
tS'b'
tRp688
(I1
(I2
tg7
I00
S'\xbe\xfa\x1c?\x85\n\xc6>'
tbtp689
a(S'/data/ad6813/pipe-data/BlueboxTemp/199368.jpg'
p690
g3
(g4
(I0
tS'b'
tRp691
(I1
(I2
tg7
I00
S'\xc0\x01X?\x02\xf9\x1f>'
tbtp692
a(S'/data/ad6813/pipe-data/BlueboxTemp/199377.jpg'
p693
g3
(g4
(I0
tS'b'
tRp694
(I1
(I2
tg7
I00
S'\xb9\x85\x1a?\x90\xf4\xca>'
tbtp695
a(S'/data/ad6813/pipe-data/BlueboxTemp/199391.jpg'
p696
g3
(g4
(I0
tS'b'
tRp697
(I1
(I2
tg7
I00
S'\xa5\xccv?\xb85\x13='
tbtp698
a(S'/data/ad6813/pipe-data/BlueboxTemp/199392.jpg'
p699
g3
(g4
(I0
tS'b'
tRp700
(I1
(I2
tg7
I00
S'3\x83p?\xce\xccw='
tbtp701
a(S'/data/ad6813/pipe-data/BlueboxTemp/199404.jpg'
p702
g3
(g4
(I0
tS'b'
tRp703
(I1
(I2
tg7
I00
S'\x1b;\xcc>r\xe2\x19?'
tbtp704
a(S'/data/ad6813/pipe-data/BlueboxTemp/199417.jpg'
p705
g3
(g4
(I0
tS'b'
tRp706
(I1
(I2
tg7
I00
S'b\xadj?\xfd\x94\xaa='
tbtp707
a(S'/data/ad6813/pipe-data/BlueboxTemp/199422.jpg'
p708
g3
(g4
(I0
tS'b'
tRp709
(I1
(I2
tg7
I00
S'\x85\x1fp?\xb5\x07~='
tbtp710
a(S'/data/ad6813/pipe-data/BlueboxTemp/199434.jpg'
p711
g3
(g4
(I0
tS'b'
tRp712
(I1
(I2
tg7
I00
S'\xf8?k?7\x00\xa6='
tbtp713
a(S'/data/ad6813/pipe-data/BlueboxTemp/199435.jpg'
p714
g3
(g4
(I0
tS'b'
tRp715
(I1
(I2
tg7
I00
S'\xedJp?"Q{='
tbtp716
a(S'/data/ad6813/pipe-data/BlueboxTemp/199441.jpg'
p717
g3
(g4
(I0
tS'b'
tRp718
(I1
(I2
tg7
I00
S'\xea\xccb?\xb5\x98\xe9='
tbtp719
a(S'/data/ad6813/pipe-data/BlueboxTemp/199446.jpg'
p720
g3
(g4
(I0
tS'b'
tRp721
(I1
(I2
tg7
I00
S'\xd3ag?u\xf1\xc4='
tbtp722
a(S'/data/ad6813/pipe-data/BlueboxTemp/199447.jpg'
p723
g3
(g4
(I0
tS'b'
tRp724
(I1
(I2
tg7
I00
S'\xcb\x1f\x7f?\xab4`;'
tbtp725
a(S'/data/ad6813/pipe-data/BlueboxTemp/199448.jpg'
p726
g3
(g4
(I0
tS'b'
tRp727
(I1
(I2
tg7
I00
S'}\xabz?Q\x90\xaa<'
tbtp728
a(S'/data/ad6813/pipe-data/BlueboxTemp/199451.jpg'
p729
g3
(g4
(I0
tS'b'
tRp730
(I1
(I2
tg7
I00
S'cyS?q\x1a2>'
tbtp731
a(S'/data/ad6813/pipe-data/BlueboxTemp/199454.jpg'
p732
g3
(g4
(I0
tS'b'
tRp733
(I1
(I2
tg7
I00
S'\x16\x8dV?\xa2\xcb%>'
tbtp734
a(S'/data/ad6813/pipe-data/BlueboxTemp/199455.jpg'
p735
g3
(g4
(I0
tS'b'
tRp736
(I1
(I2
tg7
I00
S'6\x8fn?Q\x86\x8b='
tbtp737
a(S'/data/ad6813/pipe-data/BlueboxTemp/199459.jpg'
p738
g3
(g4
(I0
tS'b'
tRp739
(I1
(I2
tg7
I00
S'\x106s?\xf5\x9eL='
tbtp740
a(S'/data/ad6813/pipe-data/BlueboxTemp/199460.jpg'
p741
g3
(g4
(I0
tS'b'
tRp742
(I1
(I2
tg7
I00
S'\xf6\xb5L?0(M>'
tbtp743
a(S'/data/ad6813/pipe-data/BlueboxTemp/199465.jpg'
p744
g3
(g4
(I0
tS'b'
tRp745
(I1
(I2
tg7
I00
S'\x16{\x07?\xd5\t\xf1>'
tbtp746
a(S'/data/ad6813/pipe-data/BlueboxTemp/199469.jpg'
p747
g3
(g4
(I0
tS'b'
tRp748
(I1
(I2
tg7
I00
S'\xc3\xe6d?\xe3\xc9\xd8='
tbtp749
a(S'/data/ad6813/pipe-data/BlueboxTemp/199470.jpg'
p750
g3
(g4
(I0
tS'b'
tRp751
(I1
(I2
tg7
I00
S'\x8aKN?\xd8\xd1F>'
tbtp752
a(S'/data/ad6813/pipe-data/BlueboxTemp/199472.jpg'
p753
g3
(g4
(I0
tS'b'
tRp754
(I1
(I2
tg7
I00
S'\xb2\xc1s?\xe3\xe4C='
tbtp755
a(S'/data/ad6813/pipe-data/BlueboxTemp/199475.jpg'
p756
g3
(g4
(I0
tS'b'
tRp757
(I1
(I2
tg7
I00
S'\x04\x18H?\xee\x9f_>'
tbtp758
a(S'/data/ad6813/pipe-data/BlueboxTemp/199479.jpg'
p759
g3
(g4
(I0
tS'b'
tRp760
(I1
(I2
tg7
I00
S'\xeeyx?5\xc2\xf0<'
tbtp761
a(S'/data/ad6813/pipe-data/BlueboxTemp/199482.jpg'
p762
g3
(g4
(I0
tS'b'
tRp763
(I1
(I2
tg7
I00
S'\x16&m?@\xcf\x96='
tbtp764
a(S'/data/ad6813/pipe-data/BlueboxTemp/199483.jpg'
p765
g3
(g4
(I0
tS'b'
tRp766
(I1
(I2
tg7
I00
S'\xef\xb4K?E,Q>'
tbtp767
a(S'/data/ad6813/pipe-data/BlueboxTemp/199508.jpg'
p768
g3
(g4
(I0
tS'b'
tRp769
(I1
(I2
tg7
I00
S'\xcda\x1e?i<\xc3>'
tbtp770
a(S'/data/ad6813/pipe-data/BlueboxTemp/199533.jpg'
p771
g3
(g4
(I0
tS'b'
tRp772
(I1
(I2
tg7
I00
S'\xb7*&?\x90\xaa\xb3>'
tbtp773
a(S'/data/ad6813/pipe-data/BlueboxTemp/199535.jpg'
p774
g3
(g4
(I0
tS'b'
tRp775
(I1
(I2
tg7
I00
S'\xc5f\x83>\x9eL>?'
tbtp776
a(S'/data/ad6813/pipe-data/BlueboxTemp/199584.jpg'
p777
g3
(g4
(I0
tS'b'
tRp778
(I1
(I2
tg7
I00
S'.\x01v?\x13\xed\x1f='
tbtp779
a(S'/data/ad6813/pipe-data/BlueboxTemp/199590.jpg'
p780
g3
(g4
(I0
tS'b'
tRp781
(I1
(I2
tg7
I00
S'N\xaam?\x9b\xad\x92='
tbtp782
a(S'/data/ad6813/pipe-data/BlueboxTemp/199600.jpg'
p783
g3
(g4
(I0
tS'b'
tRp784
(I1
(I2
tg7
I00
S'\xb5NU?-\xc5*>'
tbtp785
a(S'/data/ad6813/pipe-data/BlueboxTemp/199608.jpg'
p786
g3
(g4
(I0
tS'b'
tRp787
(I1
(I2
tg7
I00
S'\x18\xb1n?Bw\x8a='
tbtp788
a(S'/data/ad6813/pipe-data/BlueboxTemp/199609.jpg'
p789
g3
(g4
(I0
tS'b'
tRp790
(I1
(I2
tg7
I00
S'\xde\xfdn?\x1d\x11\x88='
tbtp791
a(S'/data/ad6813/pipe-data/BlueboxTemp/199636.jpg'
p792
g3
(g4
(I0
tS'b'
tRp793
(I1
(I2
tg7
I00
S'\xfb\xe0\xe3>\x82\x0f\x0e?'
tbtp794
a(S'/data/ad6813/pipe-data/BlueboxTemp/199644.jpg'
p795
g3
(g4
(I0
tS'b'
tRp796
(I1
(I2
tg7
I00
S'r\xb0t?\xe8\xf84='
tbtp797
a(S'/data/ad6813/pipe-data/BlueboxTemp/199647.jpg'
p798
g3
(g4
(I0
tS'b'
tRp799
(I1
(I2
tg7
I00
S'\xfb\xacp?F0u='
tbtp800
a(S'/data/ad6813/pipe-data/BlueboxTemp/199651.jpg'
p801
g3
(g4
(I0
tS'b'
tRp802
(I1
(I2
tg7
I00
S'k\x07Z?Q\xe2\x17>'
tbtp803
a(S'/data/ad6813/pipe-data/BlueboxTemp/199664.jpg'
p804
g3
(g4
(I0
tS'b'
tRp805
(I1
(I2
tg7
I00
S'Hie?\xc3\xb5\xd4='
tbtp806
a(S'/data/ad6813/pipe-data/BlueboxTemp/199665.jpg'
p807
g3
(g4
(I0
tS'b'
tRp808
(I1
(I2
tg7
I00
S'>k\\?\x0bS\x0e>'
tbtp809
a(S'/data/ad6813/pipe-data/BlueboxTemp/199666.jpg'
p810
g3
(g4
(I0
tS'b'
tRp811
(I1
(I2
tg7
I00
S'\xfa\x18b?58\xef='
tbtp812
a(S'/data/ad6813/pipe-data/BlueboxTemp/199668.jpg'
p813
g3
(g4
(I0
tS'b'
tRp814
(I1
(I2
tg7
I00
S';\xffu?D\x0c ='
tbtp815
a(S'/data/ad6813/pipe-data/BlueboxTemp/199674.jpg'
p816
g3
(g4
(I0
tS'b'
tRp817
(I1
(I2
tg7
I00
S'\xfdbt?0\xd09='
tbtp818
a(S'/data/ad6813/pipe-data/BlueboxTemp/199684.jpg'
p819
g3
(g4
(I0
tS'b'
tRp820
(I1
(I2
tg7
I00
S'\x92\x86H?\xb5\xe5]>'
tbtp821
a(S'/data/ad6813/pipe-data/BlueboxTemp/199690.jpg'
p822
g3
(g4
(I0
tS'b'
tRp823
(I1
(I2
tg7
I00
S':Th?6^\xbd='
tbtp824
a(S'/data/ad6813/pipe-data/BlueboxTemp/199694.jpg'
p825
g3
(g4
(I0
tS'b'
tRp826
(I1
(I2
tg7
I00
S'F\xdbp?\x90Kr='
tbtp827
a(S'/data/ad6813/pipe-data/BlueboxTemp/199695.jpg'
p828
g3
(g4
(I0
tS'b'
tRp829
(I1
(I2
tg7
I00
S':\x1cu?x<.='
tbtp830
a(S'/data/ad6813/pipe-data/BlueboxTemp/199697.jpg'
p831
g3
(g4
(I0
tS'b'
tRp832
(I1
(I2
tg7
I00
S'\xf5\xf9T?*\x18,>'
tbtp833
a(S'/data/ad6813/pipe-data/BlueboxTemp/199698.jpg'
p834
g3
(g4
(I0
tS'b'
tRp835
(I1
(I2
tg7
I00
S'\x02\xda\x05?\xfbK\xf4>'
tbtp836
a(S'/data/ad6813/pipe-data/BlueboxTemp/199699.jpg'
p837
g3
(g4
(I0
tS'b'
tRp838
(I1
(I2
tg7
I00
S'\x0e\xdcG?\xc6\x8f`>'
tbtp839
a(S'/data/ad6813/pipe-data/BlueboxTemp/199700.jpg'
p840
g3
(g4
(I0
tS'b'
tRp841
(I1
(I2
tg7
I00
S'\x10\x02n?\x7f\xef\x8f='
tbtp842
a(S'/data/ad6813/pipe-data/BlueboxTemp/199706.jpg'
p843
g3
(g4
(I0
tS'b'
tRp844
(I1
(I2
tg7
I00
S'\r\xe9v?/o\x11='
tbtp845
a(S'/data/ad6813/pipe-data/BlueboxTemp/199709.jpg'
p846
g3
(g4
(I0
tS'b'
tRp847
(I1
(I2
tg7
I00
S'\x02\x83f?\xf7\xe7\xcb='
tbtp848
a(S'/data/ad6813/pipe-data/BlueboxTemp/199710.jpg'
p849
g3
(g4
(I0
tS'b'
tRp850
(I1
(I2
tg7
I00
S'l\xe2@?Nv|>'
tbtp851
a(S'/data/ad6813/pipe-data/BlueboxTemp/199712.jpg'
p852
g3
(g4
(I0
tS'b'
tRp853
(I1
(I2
tg7
I00
S'\xfd\xbeo?\x17\x08\x82='
tbtp854
a(S'/data/ad6813/pipe-data/BlueboxTemp/199714.jpg'
p855
g3
(g4
(I0
tS'b'
tRp856
(I1
(I2
tg7
I00
S'\xe5\x87S?j\xe01>'
tbtp857
a(S'/data/ad6813/pipe-data/BlueboxTemp/199717.jpg'
p858
g3
(g4
(I0
tS'b'
tRp859
(I1
(I2
tg7
I00
S'\xe0\xd2p?\xf3\xd1r='
tbtp860
a(S'/data/ad6813/pipe-data/BlueboxTemp/199719.jpg'
p861
g3
(g4
(I0
tS'b'
tRp862
(I1
(I2
tg7
I00
S'\xf2\x8cw?\xf20\x07='
tbtp863
a(S'/data/ad6813/pipe-data/BlueboxTemp/199722.jpg'
p864
g3
(g4
(I0
tS'b'
tRp865
(I1
(I2
tg7
I00
S'\xceOc?\x8a\x81\xe5='
tbtp866
a(S'/data/ad6813/pipe-data/BlueboxTemp/199732.jpg'
p867
g3
(g4
(I0
tS'b'
tRp868
(I1
(I2
tg7
I00
S'27F?=#g>'
tbtp869
a(S'/data/ad6813/pipe-data/BlueboxTemp/199734.jpg'
p870
g3
(g4
(I0
tS'b'
tRp871
(I1
(I2
tg7
I00
S'\xfb\xc9R?\x13\xd84>'
tbtp872
a(S'/data/ad6813/pipe-data/BlueboxTemp/199736.jpg'
p873
g3
(g4
(I0
tS'b'
tRp874
(I1
(I2
tg7
I00
S'\x85\xefk?\xd6\x83\xa0='
tbtp875
a(S'/data/ad6813/pipe-data/BlueboxTemp/199739.jpg'
p876
g3
(g4
(I0
tS'b'
tRp877
(I1
(I2
tg7
I00
S'\x92\x028?\xde\xfa\x8f>'
tbtp878
a(S'/data/ad6813/pipe-data/BlueboxTemp/199740.jpg'
p879
g3
(g4
(I0
tS'b'
tRp880
(I1
(I2
tg7
I00
S'K\xb3\xd8>[\xa6\x13?'
tbtp881
a(S'/data/ad6813/pipe-data/BlueboxTemp/199748.jpg'
p882
g3
(g4
(I0
tS'b'
tRp883
(I1
(I2
tg7
I00
S'n\x015?#\xfd\x95>'
tbtp884
a(S'/data/ad6813/pipe-data/BlueboxTemp/199751.jpg'
p885
g3
(g4
(I0
tS'b'
tRp886
(I1
(I2
tg7
I00
S'\xab\xf7 ?\xaa\x10\xbe>'
tbtp887
a(S'/data/ad6813/pipe-data/BlueboxTemp/199758.jpg'
p888
g3
(g4
(I0
tS'b'
tRp889
(I1
(I2
tg7
I00
S'c\x80\x9a>\xce\xbf2?'
tbtp890
a(S'/data/ad6813/pipe-data/BlueboxTemp/199759.jpg'
p891
g3
(g4
(I0
tS'b'
tRp892
(I1
(I2
tg7
I00
S'\xfekd?\x12\xa0\xdc='
tbtp893
a(S'/data/ad6813/pipe-data/BlueboxTemp/199772.jpg'
p894
g3
(g4
(I0
tS'b'
tRp895
(I1
(I2
tg7
I00
S'"&R?wg7>'
tbtp896
a(S'/data/ad6813/pipe-data/BlueboxTemp/199777.jpg'
p897
g3
(g4
(I0
tS'b'
tRp898
(I1
(I2
tg7
I00
S'\xceNg?\x89\x89\xc5='
tbtp899
a(S'/data/ad6813/pipe-data/BlueboxTemp/199778.jpg'
p900
g3
(g4
(I0
tS'b'
tRp901
(I1
(I2
tg7
I00
S'[\x1dI?\x96\x8a[>'
tbtp902
a(S'/data/ad6813/pipe-data/BlueboxTemp/199780.jpg'
p903
g3
(g4
(I0
tS'b'
tRp904
(I1
(I2
tg7
I00
S'\x82\xd0d?\xf8{\xd9='
tbtp905
a(S'/data/ad6813/pipe-data/BlueboxTemp/199784.jpg'
p906
g3
(g4
(I0
tS'b'
tRp907
(I1
(I2
tg7
I00
S'\xf5\x92r?\xb6\xd0V='
tbtp908
a(S'/data/ad6813/pipe-data/BlueboxTemp/199786.jpg'
p909
g3
(g4
(I0
tS'b'
tRp910
(I1
(I2
tg7
I00
S'\x88O_?\xe0\xc1\x02>'
tbtp911
a(S'/data/ad6813/pipe-data/BlueboxTemp/199799.jpg'
p912
g3
(g4
(I0
tS'b'
tRp913
(I1
(I2
tg7
I00
S'k\x80\\?V\xfe\r>'
tbtp914
a(S'/data/ad6813/pipe-data/BlueboxTemp/199800.jpg'
p915
g3
(g4
(I0
tS'b'
tRp916
(I1
(I2
tg7
I00
S'\xbd3b?\x1eb\xee='
tbtp917
a(S'/data/ad6813/pipe-data/BlueboxTemp/199807.jpg'
p918
g3
(g4
(I0
tS'b'
tRp919
(I1
(I2
tg7
I00
S'\xda\xf2z?\xfb\xa4\xa1<'
tbtp920
a(S'/data/ad6813/pipe-data/BlueboxTemp/199815.jpg'
p921
g3
(g4
(I0
tS'b'
tRp922
(I1
(I2
tg7
I00
S'\x08PZ?\xe1\xbf\x16>'
tbtp923
a(S'/data/ad6813/pipe-data/BlueboxTemp/199817.jpg'
p924
g3
(g4
(I0
tS'b'
tRp925
(I1
(I2
tg7
I00
S'R\xa9f?\x80\xb5\xca='
tbtp926
a(S'/data/ad6813/pipe-data/BlueboxTemp/199820.jpg'
p927
g3
(g4
(I0
tS'b'
tRp928
(I1
(I2
tg7
I00
S'\x9aj_?\x9bU\x02>'
tbtp929
a(S'/data/ad6813/pipe-data/BlueboxTemp/199821.jpg'
p930
g3
(g4
(I0
tS'b'
tRp931
(I1
(I2
tg7
I00
S'\xcb\x93u?Z\xc3&='
tbtp932
a(S'/data/ad6813/pipe-data/BlueboxTemp/199825.jpg'
p933
g3
(g4
(I0
tS'b'
tRp934
(I1
(I2
tg7
I00
S'\xd6\xd5{?BE\x85<'
tbtp935
a(S'/data/ad6813/pipe-data/BlueboxTemp/199836.jpg'
p936
g3
(g4
(I0
tS'b'
tRp937
(I1
(I2
tg7
I00
S'@\xe1j?\xf2\xf5\xa8='
tbtp938
a(S'/data/ad6813/pipe-data/BlueboxTemp/199838.jpg'
p939
g3
(g4
(I0
tS'b'
tRp940
(I1
(I2
tg7
I00
S'\x16\xbeS?\xa6\x071>'
tbtp941
a(S'/data/ad6813/pipe-data/BlueboxTemp/199839.jpg'
p942
g3
(g4
(I0
tS'b'
tRp943
(I1
(I2
tg7
I00
S'\x82\x7ff?\xfd\x03\xcc='
tbtp944
a(S'/data/ad6813/pipe-data/BlueboxTemp/199840.jpg'
p945
g3
(g4
(I0
tS'b'
tRp946
(I1
(I2
tg7
I00
S'-Yi?\x9d6\xb5='
tbtp947
a(S'/data/ad6813/pipe-data/BlueboxTemp/199844.jpg'
p948
g3
(g4
(I0
tS'b'
tRp949
(I1
(I2
tg7
I00
S'b=k?\xeb\x14\xa6='
tbtp950
a(S'/data/ad6813/pipe-data/BlueboxTemp/199850.jpg'
p951
g3
(g4
(I0
tS'b'
tRp952
(I1
(I2
tg7
I00
S'\x862k?\xcek\xa6='
tbtp953
a(S'/data/ad6813/pipe-data/BlueboxTemp/199851.jpg'
p954
g3
(g4
(I0
tS'b'
tRp955
(I1
(I2
tg7
I00
S'P\xe8x?\xea\xf5\xe2<'
tbtp956
a(S'/data/ad6813/pipe-data/BlueboxTemp/199861.jpg'
p957
g3
(g4
(I0
tS'b'
tRp958
(I1
(I2
tg7
I00
S'\xa2\xfbO?y\x11@>'
tbtp959
a(S'/data/ad6813/pipe-data/BlueboxTemp/199866.jpg'
p960
g3
(g4
(I0
tS'b'
tRp961
(I1
(I2
tg7
I00
S'\n>;?\xee\x83\x89>'
tbtp962
a(S'/data/ad6813/pipe-data/BlueboxTemp/199869.jpg'
p963
g3
(g4
(I0
tS'b'
tRp964
(I1
(I2
tg7
I00
S'\xdb\xdeO?\x97\x84@>'
tbtp965
a(S'/data/ad6813/pipe-data/BlueboxTemp/199874.jpg'
p966
g3
(g4
(I0
tS'b'
tRp967
(I1
(I2
tg7
I00
S'}o\xd8>B\xc8\x13?'
tbtp968
a(S'/data/ad6813/pipe-data/BlueboxTemp/199878.jpg'
p969
g3
(g4
(I0
tS'b'
tRp970
(I1
(I2
tg7
I00
S"\x1d\xb6R?\x8b'5>"
tbtp971
a(S'/data/ad6813/pipe-data/BlueboxTemp/199892.jpg'
p972
g3
(g4
(I0
tS'b'
tRp973
(I1
(I2
tg7
I00
S'FBS?\xe9\xf62>'
tbtp974
a(S'/data/ad6813/pipe-data/BlueboxTemp/199904.jpg'
p975
g3
(g4
(I0
tS'b'
tRp976
(I1
(I2
tg7
I00
S"\x12\xb6_?\xb7'\x01>"
tbtp977
a(S'/data/ad6813/pipe-data/BlueboxTemp/199911.jpg'
p978
g3
(g4
(I0
tS'b'
tRp979
(I1
(I2
tg7
I00
S'\xcd\x08_?\xd0\xdc\x03>'
tbtp980
a(S'/data/ad6813/pipe-data/BlueboxTemp/199913.jpg'
p981
g3
(g4
(I0
tS'b'
tRp982
(I1
(I2
tg7
I00
S'&g}?I6&<'
tbtp983
a(S'/data/ad6813/pipe-data/BlueboxTemp/199915.jpg'
p984
g3
(g4
(I0
tS'b'
tRp985
(I1
(I2
tg7
I00
S'h@x?\r\xf3\xf7<'
tbtp986
a(S'/data/ad6813/pipe-data/BlueboxTemp/199921.jpg'
p987
g3
(g4
(I0
tS'b'
tRp988
(I1
(I2
tg7
I00
S'\x13pg?k\x7f\xc4='
tbtp989
a(S'/data/ad6813/pipe-data/BlueboxTemp/199924.jpg'
p990
g3
(g4
(I0
tS'b'
tRp991
(I1
(I2
tg7
I00
S'S\x82d?r\xed\xdb='
tbtp992
a(S'/data/ad6813/pipe-data/BlueboxTemp/199936.jpg'
p993
g3
(g4
(I0
tS'b'
tRp994
(I1
(I2
tg7
I00
S'0\x02??\xa0\xfb\x81>'
tbtp995
a(S'/data/ad6813/pipe-data/BlueboxTemp/199937.jpg'
p996
g3
(g4
(I0
tS'b'
tRp997
(I1
(I2
tg7
I00
S'\x82\x7fY?\xfb\x01\x1a>'
tbtp998
a(S'/data/ad6813/pipe-data/BlueboxTemp/199944.jpg'
p999
g3
(g4
(I0
tS'b'
tRp1000
(I1
(I2
tg7
I00
S'\x1e\x15g?\x13W\xc7='
tbtp1001
a(S'/data/ad6813/pipe-data/BlueboxTemp/199950.jpg'
p1002
g3
(g4
(I0
tS'b'
tRp1003
(I1
(I2
tg7
I00
S':3m?6f\x96='
tbtp1004
a(S'/data/ad6813/pipe-data/BlueboxTemp/199959.jpg'
p1005
g3
(g4
(I0
tS'b'
tRp1006
(I1
(I2
tg7
I00
S'\xf6\xd6c?CH\xe1='
tbtp1007
a(S'/data/ad6813/pipe-data/BlueboxTemp/199964.jpg'
p1008
g3
(g4
(I0
tS'b'
tRp1009
(I1
(I2
tg7
I00
S'\xc2\x99y?\xc5\xc7\xcc<'
tbtp1010
a(S'/data/ad6813/pipe-data/BlueboxTemp/199968.jpg'
p1011
g3
(g4
(I0
tS'b'
tRp1012
(I1
(I2
tg7
I00
S'\xa8\x8bq?\x93Eg='
tbtp1013
a(S'/data/ad6813/pipe-data/BlueboxTemp/199981.jpg'
p1014
g3
(g4
(I0
tS'b'
tRp1015
(I1
(I2
tg7
I00
S'\xe5\xcdh?\xe6\x90\xb9='
tbtp1016
a(S'/data/ad6813/pipe-data/BlueboxTemp/199982.jpg'
p1017
g3
(g4
(I0
tS'b'
tRp1018
(I1
(I2
tg7
I00
S'\xa2ol?\xfa\x82\x9c='
tbtp1019
a(S'/data/ad6813/pipe-data/BlueboxTemp/199990.jpg'
p1020
g3
(g4
(I0
tS'b'
tRp1021
(I1
(I2
tg7
I00
S'r\xf1;?\x1e\x1d\x88>'
tbtp1022
a(S'/data/ad6813/pipe-data/BlueboxTemp/199993.jpg'
p1023
g3
(g4
(I0
tS'b'
tRp1024
(I1
(I2
tg7
I00
S'\x9b\xc1h?,\xf3\xb9='
tbtp1025
a(S'/data/ad6813/pipe-data/BlueboxTemp/199996.jpg'
p1026
g3
(g4
(I0
tS'b'
tRp1027
(I1
(I2
tg7
I00
S'\xca\xc5r?[\xa3S='
tbtp1028
a(S'/data/ad6813/pipe-data/BlueboxTemp/200001.jpg'
p1029
g3
(g4
(I0
tS'b'
tRp1030
(I1
(I2
tg7
I00
S'\xed(z?\x90\xe2\xba<'
tbtp1031
a(S'/data/ad6813/pipe-data/BlueboxTemp/200013.jpg'
p1032
g3
(g4
(I0
tS'b'
tRp1033
(I1
(I2
tg7
I00
S'\x8b\x0e\x7f?5tq;'
tbtp1034
a(S'/data/ad6813/pipe-data/BlueboxTemp/200014.jpg'
p1035
g3
(g4
(I0
tS'b'
tRp1036
(I1
(I2
tg7
I00
S'\x88e[?\xe5i\x12>'
tbtp1037
a(S'/data/ad6813/pipe-data/BlueboxTemp/200028.jpg'
p1038
g3
(g4
(I0
tS'b'
tRp1039
(I1
(I2
tg7
I00
S'4\xa6\x0b?\x96\xb3\xe8>'
tbtp1040
a(S'/data/ad6813/pipe-data/BlueboxTemp/200030.jpg'
p1041
g3
(g4
(I0
tS'b'
tRp1042
(I1
(I2
tg7
I00
S'\xf5oh?m\x80\xbc='
tbtp1043
a(S'/data/ad6813/pipe-data/BlueboxTemp/200045.jpg'
p1044
g3
(g4
(I0
tS'b'
tRp1045
(I1
(I2
tg7
I00
S'\xf5\t4?\x16\xec\x97>'
tbtp1046
a(S'/data/ad6813/pipe-data/BlueboxTemp/200046.jpg'
p1047
g3
(g4
(I0
tS'b'
tRp1048
(I1
(I2
tg7
I00
S'-R-?\xa6[\xa5>'
tbtp1049
a(S'/data/ad6813/pipe-data/BlueboxTemp/200051.jpg'
p1050
g3
(g4
(I0
tS'b'
tRp1051
(I1
(I2
tg7
I00
S';\xc5\xfe>b\x9d\x00?'
tbtp1052
a(S'/data/ad6813/pipe-data/BlueboxTemp/200053.jpg'
p1053
g3
(g4
(I0
tS'b'
tRp1054
(I1
(I2
tg7
I00
S'0lp?\xed<y='
tbtp1055
a(S'/data/ad6813/pipe-data/BlueboxTemp/200070.jpg'
p1056
g3
(g4
(I0
tS'b'
tRp1057
(I1
(I2
tg7
I00
S'e\x0f\xe3>Lx\x0e?'
tbtp1058
a(S'/data/ad6813/pipe-data/BlueboxTemp/200072.jpg'
p1059
g3
(g4
(I0
tS'b'
tRp1060
(I1
(I2
tg7
I00
S'3\xba\xe8>\xe7\xa2\x0b?'
tbtp1061
a(S'/data/ad6813/pipe-data/BlueboxTemp/200093.jpg'
p1062
g3
(g4
(I0
tS'b'
tRp1063
(I1
(I2
tg7
I00
S'fQj?\xc1t\xad='
tbtp1064
a(S'/data/ad6813/pipe-data/BlueboxTemp/200098.jpg'
p1065
g3
(g4
(I0
tS'b'
tRp1066
(I1
(I2
tg7
I00
S'\x88\xf4R?\xe1-4>'
tbtp1067
a(S'/data/ad6813/pipe-data/BlueboxTemp/200106.jpg'
p1068
g3
(g4
(I0
tS'b'
tRp1069
(I1
(I2
tg7
I00
S'H\xdes?~\x1bB='
tbtp1070
a(S'/data/ad6813/pipe-data/BlueboxTemp/200111.jpg'
p1071
g3
(g4
(I0
tS'b'
tRp1072
(I1
(I2
tg7
I00
S'\xfd\x1cK?\r\x8cS>'
tbtp1073
a(S'/data/ad6813/pipe-data/BlueboxTemp/200112.jpg'
p1074
g3
(g4
(I0
tS'b'
tRp1075
(I1
(I2
tg7
I00
S'\x18i\\?\x9e[\x0e>'
tbtp1076
a(S'/data/ad6813/pipe-data/BlueboxTemp/200117.jpg'
p1077
g3
(g4
(I0
tS'b'
tRp1078
(I1
(I2
tg7
I00
S'\x16\xa2S?\xa1w1>'
tbtp1079
a(S'/data/ad6813/pipe-data/BlueboxTemp/200121.jpg'
p1080
g3
(g4
(I0
tS'b'
tRp1081
(I1
(I2
tg7
I00
S'\xba\x0fa?3\x82\xf7='
tbtp1082
a(S'/data/ad6813/pipe-data/BlueboxTemp/200122.jpg'
p1083
g3
(g4
(I0
tS'b'
tRp1084
(I1
(I2
tg7
I00
S'`\xa5E?~ji>'
tbtp1085
a(S'/data/ad6813/pipe-data/BlueboxTemp/200130.jpg'
p1086
g3
(g4
(I0
tS'b'
tRp1087
(I1
(I2
tg7
I00
S'\x121m?qw\x96='
tbtp1088
a(S'/data/ad6813/pipe-data/BlueboxTemp/200131.jpg'
p1089
g3
(g4
(I0
tS'b'
tRp1090
(I1
(I2
tg7
I00
S'\xcbKk?\xa6\xa1\xa5='
tbtp1091
a(S'/data/ad6813/pipe-data/BlueboxTemp/200136.jpg'
p1092
g3
(g4
(I0
tS'b'
tRp1093
(I1
(I2
tg7
I00
S'\xe3\xb8m?\xe88\x92='
tbtp1094
a(S'/data/ad6813/pipe-data/BlueboxTemp/200147.jpg'
p1095
g3
(g4
(I0
tS'b'
tRp1096
(I1
(I2
tg7
I00
S'J<w?e;\x0c='
tbtp1097
a(S'/data/ad6813/pipe-data/BlueboxTemp/200150.jpg'
p1098
g3
(g4
(I0
tS'b'
tRp1099
(I1
(I2
tg7
I00
S'\xa0\xb0(?\xbf\x9e\xae>'
tbtp1100
a(S'/data/ad6813/pipe-data/BlueboxTemp/200153.jpg'
p1101
g3
(g4
(I0
tS'b'
tRp1102
(I1
(I2
tg7
I00
S'\xe0fs?#\x92I='
tbtp1103
a(S'/data/ad6813/pipe-data/BlueboxTemp/200157.jpg'
p1104
g3
(g4
(I0
tS'b'
tRp1105
(I1
(I2
tg7
I00
S'\xe8\x00)?0\xfe\xad>'
tbtp1106
a(S'/data/ad6813/pipe-data/BlueboxTemp/200158.jpg'
p1107
g3
(g4
(I0
tS'b'
tRp1108
(I1
(I2
tg7
I00
S';\x90\\?\x12\xbf\r>'
tbtp1109
a(S'/data/ad6813/pipe-data/BlueboxTemp/200161.jpg'
p1110
g3
(g4
(I0
tS'b'
tRp1111
(I1
(I2
tg7
I00
S'\xdaCb?5\xe1\xed='
tbtp1112
a(S'/data/ad6813/pipe-data/BlueboxTemp/200162.jpg'
p1113
g3
(g4
(I0
tS'b'
tRp1114
(I1
(I2
tg7
I00
S'\xa5\x8f\x1a?\xb6\xe0\xca>'
tbtp1115
a(S'/data/ad6813/pipe-data/BlueboxTemp/200165.jpg'
p1116
g3
(g4
(I0
tS'b'
tRp1117
(I1
(I2
tg7
I00
S'\xa8\xf8o?\xba:\x80='
tbtp1118
a(S'/data/ad6813/pipe-data/BlueboxTemp/200173.jpg'
p1119
g3
(g4
(I0
tS'b'
tRp1120
(I1
(I2
tg7
I00
S'{\xadg? \x94\xc2='
tbtp1121
a(S'/data/ad6813/pipe-data/BlueboxTemp/200174.jpg'
p1122
g3
(g4
(I0
tS'b'
tRp1123
(I1
(I2
tg7
I00
S'r\x8fj?}\x84\xab='
tbtp1124
a(S'/data/ad6813/pipe-data/BlueboxTemp/200193.jpg'
p1125
g3
(g4
(I0
tS'b'
tRp1126
(I1
(I2
tg7
I00
S'\x98>Q?\x9a\x05;>'
tbtp1127
a(S'/data/ad6813/pipe-data/BlueboxTemp/200196.jpg'
p1128
g3
(g4
(I0
tS'b'
tRp1129
(I1
(I2
tg7
I00
S'\xa8\x92z?\x18\xab\xad<'
tbtp1130
a(S'/data/ad6813/pipe-data/BlueboxTemp/200197.jpg'
p1131
g3
(g4
(I0
tS'b'
tRp1132
(I1
(I2
tg7
I00
S'\x88\xfen?\xbb\x0b\x88='
tbtp1133
a(S'/data/ad6813/pipe-data/BlueboxTemp/200200.jpg'
p1134
g3
(g4
(I0
tS'b'
tRp1135
(I1
(I2
tg7
I00
S'\x8f^D?\xc6\x85n>'
tbtp1136
a(S'/data/ad6813/pipe-data/BlueboxTemp/200203.jpg'
p1137
g3
(g4
(I0
tS'b'
tRp1138
(I1
(I2
tg7
I00
S'\xb1\xc1\x80>(\x9f??'
tbtp1139
a(S'/data/ad6813/pipe-data/BlueboxTemp/200204.jpg'
p1140
g3
(g4
(I0
tS'b'
tRp1141
(I1
(I2
tg7
I00
S']\xb5]?\x8d*\t>'
tbtp1142
a(S'/data/ad6813/pipe-data/BlueboxTemp/200207.jpg'
p1143
g3
(g4
(I0
tS'b'
tRp1144
(I1
(I2
tg7
I00
S'(\x9f\xfc>m\xb0\x01?'
tbtp1145
a(S'/data/ad6813/pipe-data/BlueboxTemp/200208.jpg'
p1146
g3
(g4
(I0
tS'b'
tRp1147
(I1
(I2
tg7
I00
S'\xe5\xf1{?\x9a\xc3\x81<'
tbtp1148
a(S'/data/ad6813/pipe-data/BlueboxTemp/200210.jpg'
p1149
g3
(g4
(I0
tS'b'
tRp1150
(I1
(I2
tg7
I00
S'SlN?\xb5NF>'
tbtp1151
a(S'/data/ad6813/pipe-data/BlueboxTemp/200224.jpg'
p1152
g3
(g4
(I0
tS'b'
tRp1153
(I1
(I2
tg7
I00
S'\x90\x82d?\x86\xeb\xdb='
tbtp1154
a(S'/data/ad6813/pipe-data/BlueboxTemp/200229.jpg'
p1155
g3
(g4
(I0
tS'b'
tRp1156
(I1
(I2
tg7
I00
S'\xca\x022?l\xfa\x9b>'
tbtp1157
a(S'/data/ad6813/pipe-data/BlueboxTemp/200230.jpg'
p1158
g3
(g4
(I0
tS'b'
tRp1159
(I1
(I2
tg7
I00
S'w\x11I?\x1e\xba[>'
tbtp1160
a(S'/data/ad6813/pipe-data/BlueboxTemp/200237.jpg'
p1161
g3
(g4
(I0
tS'b'
tRp1162
(I1
(I2
tg7
I00
S'z\xaek?>\x8c\xa2='
tbtp1163
a(S'/data/ad6813/pipe-data/BlueboxTemp/200238.jpg'
p1164
g3
(g4
(I0
tS'b'
tRp1165
(I1
(I2
tg7
I00
S'>\xda]?\x06\x97\x08>'
tbtp1166
a(S'/data/ad6813/pipe-data/BlueboxTemp/200239.jpg'
p1167
g3
(g4
(I0
tS'b'
tRp1168
(I1
(I2
tg7
I00
S']No?\x1a\x8d\x85='
tbtp1169
a(S'/data/ad6813/pipe-data/BlueboxTemp/200240.jpg'
p1170
g3
(g4
(I0
tS'b'
tRp1171
(I1
(I2
tg7
I00
S'rMJ?:\xcaV>'
tbtp1172
a(S'/data/ad6813/pipe-data/BlueboxTemp/200243.jpg'
p1173
g3
(g4
(I0
tS'b'
tRp1174
(I1
(I2
tg7
I00
S'"]C?z\x8br>'
tbtp1175
a(S'/data/ad6813/pipe-data/BlueboxTemp/200249.jpg'
p1176
g3
(g4
(I0
tS'b'
tRp1177
(I1
(I2
tg7
I00
S'\xc2Jx?\xe5\xa7\xf6<'
tbtp1178
a(S'/data/ad6813/pipe-data/BlueboxTemp/200250.jpg'
p1179
g3
(g4
(I0
tS'b'
tRp1180
(I1
(I2
tg7
I00
S'\xc3\xeew?\xcc\x13\x01='
tbtp1181
a(S'/data/ad6813/pipe-data/BlueboxTemp/200255.jpg'
p1182
g3
(g4
(I0
tS'b'
tRp1183
(I1
(I2
tg7
I00
S'\xb0Nu?\xfa\x14+='
tbtp1184
a(S'/data/ad6813/pipe-data/BlueboxTemp/200258.jpg'
p1185
g3
(g4
(I0
tS'b'
tRp1186
(I1
(I2
tg7
I00
S'\xbayq?edh='
tbtp1187
a(S'/data/ad6813/pipe-data/BlueboxTemp/200259.jpg'
p1188
g3
(g4
(I0
tS'b'
tRp1189
(I1
(I2
tg7
I00
S':Jy?\xd5\xb8\xd6<'
tbtp1190
a(S'/data/ad6813/pipe-data/BlueboxTemp/200269.jpg'
p1191
g3
(g4
(I0
tS'b'
tRp1192
(I1
(I2
tg7
I00
S'B\xf2J?\xf86T>'
tbtp1193
a(S'/data/ad6813/pipe-data/BlueboxTemp/200270.jpg'
p1194
g3
(g4
(I0
tS'b'
tRp1195
(I1
(I2
tg7
I00
S'\x83AU?\xf6\xf9*>'
tbtp1196
a(S'/data/ad6813/pipe-data/BlueboxTemp/200271.jpg'
p1197
g3
(g4
(I0
tS'b'
tRp1198
(I1
(I2
tg7
I00
S'\xbd\xc2e?"\xea\xd1='
tbtp1199
a(S'/data/ad6813/pipe-data/BlueboxTemp/200279.jpg'
p1200
g3
(g4
(I0
tS'b'
tRp1201
(I1
(I2
tg7
I00
S'n\x06Z?F\xe6\x17>'
tbtp1202
a(S'/data/ad6813/pipe-data/BlueboxTemp/200281.jpg'
p1203
g3
(g4
(I0
tS'b'
tRp1204
(I1
(I2
tg7
I00
S'\xc6\x92}?aN\x1b<'
tbtp1205
a(S'/data/ad6813/pipe-data/BlueboxTemp/200282.jpg'
p1206
g3
(g4
(I0
tS'b'
tRp1207
(I1
(I2
tg7
I00
S'N\x8b}?\xd2,\x1d<'
tbtp1208
a(S'/data/ad6813/pipe-data/BlueboxTemp/200293.jpg'
p1209
g3
(g4
(I0
tS'b'
tRp1210
(I1
(I2
tg7
I00
S'f\xaf\\?kB\r>'
tbtp1211
a(S'/data/ad6813/pipe-data/BlueboxTemp/200304.jpg'
p1212
g3
(g4
(I0
tS'b'
tRp1213
(I1
(I2
tg7
I00
S"\x8b\xb1\xf5>:'\x05?"
tbtp1214
a(S'/data/ad6813/pipe-data/BlueboxTemp/200305.jpg'
p1215
g3
(g4
(I0
tS'b'
tRp1216
(I1
(I2
tg7
I00
S'\x8a\xe5}?\xc8\x9d\x06<'
tbtp1217
a(S'/data/ad6813/pipe-data/BlueboxTemp/200308.jpg'
p1218
g3
(g4
(I0
tS'b'
tRp1219
(I1
(I2
tg7
I00
S'\xb8\xb3h?@b\xba='
tbtp1220
a(S'/data/ad6813/pipe-data/BlueboxTemp/200309.jpg'
p1221
g3
(g4
(I0
tS'b'
tRp1222
(I1
(I2
tg7
I00
S'\xabVc?\xb0J\xe5='
tbtp1223
a(S'/data/ad6813/pipe-data/BlueboxTemp/200314.jpg'
p1224
g3
(g4
(I0
tS'b'
tRp1225
(I1
(I2
tg7
I00
S'\xa3\x01L?s\xf9O>'
tbtp1226
a(S'/data/ad6813/pipe-data/BlueboxTemp/200315.jpg'
p1227
g3
(g4
(I0
tS'b'
tRp1228
(I1
(I2
tg7
I00
S'Z\xacq?[:e='
tbtp1229
a(S'/data/ad6813/pipe-data/BlueboxTemp/200323.jpg'
p1230
g3
(g4
(I0
tS'b'
tRp1231
(I1
(I2
tg7
I00
S'\x12\xeaw?\xdf^\x01='
tbtp1232
a(S'/data/ad6813/pipe-data/BlueboxTemp/200336.jpg'
p1233
g3
(g4
(I0
tS'b'
tRp1234
(I1
(I2
tg7
I00
S'\xba\x13f?;b\xcf='
tbtp1235
a(S'/data/ad6813/pipe-data/BlueboxTemp/200337.jpg'
p1236
g3
(g4
(I0
tS'b'
tRp1237
(I1
(I2
tg7
I00
S'\xe0\x8fb?\x03\x81\xeb='
tbtp1238
a(S'/data/ad6813/pipe-data/BlueboxTemp/200340.jpg'
p1239
g3
(g4
(I0
tS'b'
tRp1240
(I1
(I2
tg7
I00
S'S\xe1R?\xb2z4>'
tbtp1241
a(S'/data/ad6813/pipe-data/BlueboxTemp/200353.jpg'
p1242
g3
(g4
(I0
tS'b'
tRp1243
(I1
(I2
tg7
I00
S'\r\xadP?\xcaK=>'
tbtp1244
a(S'/data/ad6813/pipe-data/BlueboxTemp/200355.jpg'
p1245
g3
(g4
(I0
tS'b'
tRp1246
(I1
(I2
tg7
I00
S'\x05\x05]?\xeb\xeb\x0b>'
tbtp1247
a(S'/data/ad6813/pipe-data/BlueboxTemp/200359.jpg'
p1248
g3
(g4
(I0
tS'b'
tRp1249
(I1
(I2
tg7
I00
S'K7W?\xd6"#>'
tbtp1250
a(S'/data/ad6813/pipe-data/BlueboxTemp/200360.jpg'
p1251
g3
(g4
(I0
tS'b'
tRp1252
(I1
(I2
tg7
I00
S'\xbaFp?X\x94{='
tbtp1253
a(S'/data/ad6813/pipe-data/BlueboxTemp/200375.jpg'
p1254
g3
(g4
(I0
tS'b'
tRp1255
(I1
(I2
tg7
I00
S'\xceD@?\xc5\xec~>'
tbtp1256
a(S'/data/ad6813/pipe-data/BlueboxTemp/200381.jpg'
p1257
g3
(g4
(I0
tS'b'
tRp1258
(I1
(I2
tg7
I00
S'\x05\x08n?\xdb\xbf\x8f='
tbtp1259
a(S'/data/ad6813/pipe-data/BlueboxTemp/200382.jpg'
p1260
g3
(g4
(I0
tS'b'
tRp1261
(I1
(I2
tg7
I00
S'\x0b\xe9Z?\xd5[\x14>'
tbtp1262
a(S'/data/ad6813/pipe-data/BlueboxTemp/200383.jpg'
p1263
g3
(g4
(I0
tS'b'
tRp1264
(I1
(I2
tg7
I00
S'\xe0\x18Z?}\x9c\x17>'
tbtp1265
a(S'/data/ad6813/pipe-data/BlueboxTemp/200384.jpg'
p1266
g3
(g4
(I0
tS'b'
tRp1267
(I1
(I2
tg7
I00
S'\xfa\xb9\\?\x13\x18\r>'
tbtp1268
a(S'/data/ad6813/pipe-data/BlueboxTemp/200397.jpg'
p1269
g3
(g4
(I0
tS'b'
tRp1270
(I1
(I2
tg7
I00
S'u\xbdG?-\na>'
tbtp1271
a(S'/data/ad6813/pipe-data/BlueboxTemp/200399.jpg'
p1272
g3
(g4
(I0
tS'b'
tRp1273
(I1
(I2
tg7
I00
S'`bo?\xf2\xec\x84='
tbtp1274
a(S'/data/ad6813/pipe-data/BlueboxTemp/200401.jpg'
p1275
g3
(g4
(I0
tS'b'
tRp1276
(I1
(I2
tg7
I00
S'zBA?\x1a\xf6z>'
tbtp1277
a(S'/data/ad6813/pipe-data/BlueboxTemp/200403.jpg'
p1278
g3
(g4
(I0
tS'b'
tRp1279
(I1
(I2
tg7
I00
S'vcq?\xa6\xc8i='
tbtp1280
a(S'/data/ad6813/pipe-data/BlueboxTemp/200409.jpg'
p1281
g3
(g4
(I0
tS'b'
tRp1282
(I1
(I2
tg7
I00
S'\xc3\x8fx?\xa3\x07\xee<'
tbtp1283
a(S'/data/ad6813/pipe-data/BlueboxTemp/200410.jpg'
p1284
g3
(g4
(I0
tS'b'
tRp1285
(I1
(I2
tg7
I00
S';\x91z?\x9e\xd8\xad<'
tbtp1286
a(S'/data/ad6813/pipe-data/BlueboxTemp/200414.jpg'
p1287
g3
(g4
(I0
tS'b'
tRp1288
(I1
(I2
tg7
I00
S'\x06H[?\xea\xdf\x12>'
tbtp1289
a(S'/data/ad6813/pipe-data/BlueboxTemp/200417.jpg'
p1290
g3
(g4
(I0
tS'b'
tRp1291
(I1
(I2
tg7
I00
S'\xde$f?\x00\xd9\xce='
tbtp1292
a(S'/data/ad6813/pipe-data/BlueboxTemp/200421.jpg'
p1293
g3
(g4
(I0
tS'b'
tRp1294
(I1
(I2
tg7
I00
S'6cn?M\xe6\x8c='
tbtp1295
a(S'/data/ad6813/pipe-data/BlueboxTemp/200424.jpg'
p1296
g3
(g4
(I0
tS'b'
tRp1297
(I1
(I2
tg7
I00
S'm\xdan?\x92,\x89='
tbtp1298
a(S'/data/ad6813/pipe-data/BlueboxTemp/200437.jpg'
p1299
g3
(g4
(I0
tS'b'
tRp1300
(I1
(I2
tg7
I00
S'-\x94\r?\xa3\xd7\xe4>'
tbtp1301
a(S'/data/ad6813/pipe-data/BlueboxTemp/200440.jpg'
p1302
g3
(g4
(I0
tS'b'
tRp1303
(I1
(I2
tg7
I00
S'c4\xd6>\xcf\xe5\x14?'
tbtp1304
a(S'/data/ad6813/pipe-data/BlueboxTemp/200449.jpg'
p1305
g3
(g4
(I0
tS'b'
tRp1306
(I1
(I2
tg7
I00
S'\x9e\xe9P?\x87Y<>'
tbtp1307
a(S'/data/ad6813/pipe-data/BlueboxTemp/200451.jpg'
p1308
g3
(g4
(I0
tS'b'
tRp1309
(I1
(I2
tg7
I00
S'}V_?\x0e\xa6\x02>'
tbtp1310
a(S'/data/ad6813/pipe-data/BlueboxTemp/200459.jpg'
p1311
g3
(g4
(I0
tS'b'
tRp1312
(I1
(I2
tg7
I00
S'\x1eU:?\xc4U\x8b>'
tbtp1313
a(S'/data/ad6813/pipe-data/BlueboxTemp/200461.jpg'
p1314
g3
(g4
(I0
tS'b'
tRp1315
(I1
(I2
tg7
I00
S'\xeb\xffl?\xaa\x00\x98='
tbtp1316
a(S'/data/ad6813/pipe-data/BlueboxTemp/200469.jpg'
p1317
g3
(g4
(I0
tS'b'
tRp1318
(I1
(I2
tg7
I00
S';\x1d_?\x13\x8b\x03>'
tbtp1319
a(S'/data/ad6813/pipe-data/BlueboxTemp/200472.jpg'
p1320
g3
(g4
(I0
tS'b'
tRp1321
(I1
(I2
tg7
I00
S'(\xeex?#;\xe2<'
tbtp1322
a(S'/data/ad6813/pipe-data/BlueboxTemp/200478.jpg'
p1323
g3
(g4
(I0
tS'b'
tRp1324
(I1
(I2
tg7
I00
S'\xe6?q?\xa2\x01l='
tbtp1325
a(S'/data/ad6813/pipe-data/BlueboxTemp/200485.jpg'
p1326
g3
(g4
(I0
tS'b'
tRp1327
(I1
(I2
tg7
I00
S'[\xdbA?\x93\x92x>'
tbtp1328
a(S'/data/ad6813/pipe-data/BlueboxTemp/200518.jpg'
p1329
g3
(g4
(I0
tS'b'
tRp1330
(I1
(I2
tg7
I00
S'\x06vu?\x8a\x9f(='
tbtp1331
a(S'/data/ad6813/pipe-data/BlueboxTemp/200519.jpg'
p1332
g3
(g4
(I0
tS'b'
tRp1333
(I1
(I2
tg7
I00
S'\x8b~w?Q\x17\x08='
tbtp1334
a(S'/data/ad6813/pipe-data/BlueboxTemp/200522.jpg'
p1335
g3
(g4
(I0
tS'b'
tRp1336
(I1
(I2
tg7
I00
S'\xcb\x16k?\x99I\xa7='
tbtp1337
a(S'/data/ad6813/pipe-data/BlueboxTemp/200534.jpg'
p1338
g3
(g4
(I0
tS'b'
tRp1339
(I1
(I2
tg7
I00
S'\xd3ll?b\x99\x9c='
tbtp1340
a(S'/data/ad6813/pipe-data/BlueboxTemp/200537.jpg'
p1341
g3
(g4
(I0
tS'b'
tRp1342
(I1
(I2
tg7
I00
S'P\xbb]?\xc3\x12\t>'
tbtp1343
a(S'/data/ad6813/pipe-data/BlueboxTemp/200543.jpg'
p1344
g3
(g4
(I0
tS'b'
tRp1345
(I1
(I2
tg7
I00
S's#x?\x98\x91\xfb<'
tbtp1346
a(S'/data/ad6813/pipe-data/BlueboxTemp/200553.jpg'
p1347
g3
(g4
(I0
tS'b'
tRp1348
(I1
(I2
tg7
I00
S'\x02\\z?\xa6\x7f\xb4<'
tbtp1349
a(S'/data/ad6813/pipe-data/BlueboxTemp/200560.jpg'
p1350
g3
(g4
(I0
tS'b'
tRp1351
(I1
(I2
tg7
I00
S'\x8ear?\x16\xe7Y='
tbtp1352
a(S'/data/ad6813/pipe-data/BlueboxTemp/200561.jpg'
p1353
g3
(g4
(I0
tS'b'
tRp1354
(I1
(I2
tg7
I00
S'\xa8~|?\xf2U`<'
tbtp1355
a(S'/data/ad6813/pipe-data/BlueboxTemp/200565.jpg'
p1356
g3
(g4
(I0
tS'b'
tRp1357
(I1
(I2
tg7
I00
S'\x16\x83Y?\xa6\xf3\x19>'
tbtp1358
a(S'/data/ad6813/pipe-data/BlueboxTemp/200566.jpg'
p1359
g3
(g4
(I0
tS'b'
tRp1360
(I1
(I2
tg7
I00
S'\xc0\xa2A?\x00uy>'
tbtp1361
a(S'/data/ad6813/pipe-data/BlueboxTemp/200569.jpg'
p1362
g3
(g4
(I0
tS'b'
tRp1363
(I1
(I2
tg7
I00
S'\xc2Mx?\xc3G\xf6<'
tbtp1364
a(S'/data/ad6813/pipe-data/BlueboxTemp/200571.jpg'
p1365
g3
(g4
(I0
tS'b'
tRp1366
(I1
(I2
tg7
I00
S'\xbe\xdd\x1f?\x85D\xc0>'
tbtp1367
a(S'/data/ad6813/pipe-data/BlueboxTemp/200579.jpg'
p1368
g3
(g4
(I0
tS'b'
tRp1369
(I1
(I2
tg7
I00
S'\xbb\x9c]?\x11\x8d\t>'
tbtp1370
a(S'/data/ad6813/pipe-data/BlueboxTemp/200588.jpg'
p1371
g3
(g4
(I0
tS'b'
tRp1372
(I1
(I2
tg7
I00
S'B\xc6u?\xeb\x9b#='
tbtp1373
a(S'/data/ad6813/pipe-data/BlueboxTemp/200590.jpg'
p1374
g3
(g4
(I0
tS'b'
tRp1375
(I1
(I2
tg7
I00
S'\x82\xf6`?\xf3K\xf8='
tbtp1376
a(S'/data/ad6813/pipe-data/BlueboxTemp/200591.jpg'
p1377
g3
(g4
(I0
tS'b'
tRp1378
(I1
(I2
tg7
I00
S'F\x1ee?\xce\r\xd7='
tbtp1379
a(S'/data/ad6813/pipe-data/BlueboxTemp/200600.jpg'
p1380
g3
(g4
(I0
tS'b'
tRp1381
(I1
(I2
tg7
I00
S'\x0eky?%\x9e\xd2<'
tbtp1382
a(S'/data/ad6813/pipe-data/BlueboxTemp/200602.jpg'
p1383
g3
(g4
(I0
tS'b'
tRp1384
(I1
(I2
tg7
I00
S'\xf0+y?.\x82\xda<'
tbtp1385
a(S'/data/ad6813/pipe-data/BlueboxTemp/200605.jpg'
p1386
g3
(g4
(I0
tS'b'
tRp1387
(I1
(I2
tg7
I00
S'r\x1fM?;\x82K>'
tbtp1388
a(S'/data/ad6813/pipe-data/BlueboxTemp/200735.jpg'
p1389
g3
(g4
(I0
tS'b'
tRp1390
(I1
(I2
tg7
I00
S'\x983v?n\xc6\x1c='
tbtp1391
a(S'/data/ad6813/pipe-data/BlueboxTemp/200736.jpg'
p1392
g3
(g4
(I0
tS'b'
tRp1393
(I1
(I2
tg7
I00
S'\xe6\x80f?\xc2\xf8\xcb='
tbtp1394
a(S'/data/ad6813/pipe-data/BlueboxTemp/200738.jpg'
p1395
g3
(g4
(I0
tS'b'
tRp1396
(I1
(I2
tg7
I00
S'\xbe\r\n?\x86\xe4\xeb>'
tbtp1397
a(S'/data/ad6813/pipe-data/BlueboxTemp/200743.jpg'
p1398
g3
(g4
(I0
tS'b'
tRp1399
(I1
(I2
tg7
I00
S'=\x1ey?N8\xdc<'
tbtp1400
a(S'/data/ad6813/pipe-data/BlueboxTemp/200744.jpg'
p1401
g3
(g4
(I0
tS'b'
tRp1402
(I1
(I2
tg7
I00
S'}\xd8U?\x0e\x9e(>'
tbtp1403
a(S'/data/ad6813/pipe-data/BlueboxTemp/200750.jpg'
p1404
g3
(g4
(I0
tS'b'
tRp1405
(I1
(I2
tg7
I00
S'\x03ys?\xc5oH='
tbtp1406
a(S'/data/ad6813/pipe-data/BlueboxTemp/200767.jpg'
p1407
g3
(g4
(I0
tS'b'
tRp1408
(I1
(I2
tg7
I00
S'\x03\xa1|?N\xbfW<'
tbtp1409
a(S'/data/ad6813/pipe-data/BlueboxTemp/200768.jpg'
p1410
g3
(g4
(I0
tS'b'
tRp1411
(I1
(I2
tg7
I00
S'=\xa7}?^0\x16<'
tbtp1412
a(S'/data/ad6813/pipe-data/BlueboxTemp/200782.jpg'
p1413
g3
(g4
(I0
tS'b'
tRp1414
(I1
(I2
tg7
I00
S'\x8eEu?"\xa7+='
tbtp1415
a(S'/data/ad6813/pipe-data/BlueboxTemp/200786.jpg'
p1416
g3
(g4
(I0
tS'b'
tRp1417
(I1
(I2
tg7
I00
S'F\x93m?\xc5e\x93='
tbtp1418
a(S'/data/ad6813/pipe-data/BlueboxTemp/200787.jpg'
p1419
g3
(g4
(I0
tS'b'
tRp1420
(I1
(I2
tg7
I00
S'\xfaNz?\xcf \xb6<'
tbtp1421
a(S'/data/ad6813/pipe-data/BlueboxTemp/200792.jpg'
p1422
g3
(g4
(I0
tS'b'
tRp1423
(I1
(I2
tg7
I00
S'3\xdbO?.\x93@>'
tbtp1424
a(S'/data/ad6813/pipe-data/BlueboxTemp/200793.jpg'
p1425
g3
(g4
(I0
tS'b'
tRp1426
(I1
(I2
tg7
I00
S'E0n?\xd8}\x8e='
tbtp1427
a(S'/data/ad6813/pipe-data/BlueboxTemp/200795.jpg'
p1428
g3
(g4
(I0
tS'b'
tRp1429
(I1
(I2
tg7
I00
S'>\x84q?\x03\xbcg='
tbtp1430
a(S'/data/ad6813/pipe-data/BlueboxTemp/200796.jpg'
p1431
g3
(g4
(I0
tS'b'
tRp1432
(I1
(I2
tg7
I00
S'\xab5f?\xa0R\xce='
tbtp1433
a(S'/data/ad6813/pipe-data/BlueboxTemp/200800.jpg'
p1434
g3
(g4
(I0
tS'b'
tRp1435
(I1
(I2
tg7
I00
S'2\xa85?\x9d\xaf\x94>'
tbtp1436
a(S'/data/ad6813/pipe-data/BlueboxTemp/200804.jpg'
p1437
g3
(g4
(I0
tS'b'
tRp1438
(I1
(I2
tg7
I00
S'\xbbK_?\x16\xd1\x02>'
tbtp1439
a(S'/data/ad6813/pipe-data/BlueboxTemp/200806.jpg'
p1440
g3
(g4
(I0
tS'b'
tRp1441
(I1
(I2
tg7
I00
S'e.|?\xaeft<'
tbtp1442
a(S'/data/ad6813/pipe-data/BlueboxTemp/200812.jpg'
p1443
g3
(g4
(I0
tS'b'
tRp1444
(I1
(I2
tg7
I00
S'\xe4\x92-?:\xda\xa4>'
tbtp1445
a(S'/data/ad6813/pipe-data/BlueboxTemp/200813.jpg'
p1446
g3
(g4
(I0
tS'b'
tRp1447
(I1
(I2
tg7
I00
S'\xad\xc2n?\x9a\xea\x89='
tbtp1448
a(S'/data/ad6813/pipe-data/BlueboxTemp/200824.jpg'
p1449
g3
(g4
(I0
tS'b'
tRp1450
(I1
(I2
tg7
I00
S'%}a?\xda\x16\xf4='
tbtp1451
a(S'/data/ad6813/pipe-data/BlueboxTemp/200826.jpg'
p1452
g3
(g4
(I0
tS'b'
tRp1453
(I1
(I2
tg7
I00
S'\xc7\xedA?\xe5Hx>'
tbtp1454
a(S'/data/ad6813/pipe-data/BlueboxTemp/200829.jpg'
p1455
g3
(g4
(I0
tS'b'
tRp1456
(I1
(I2
tg7
I00
S'\xd2\xc7h?}\xc1\xb9='
tbtp1457
a(S'/data/ad6813/pipe-data/BlueboxTemp/200832.jpg'
p1458
g3
(g4
(I0
tS'b'
tRp1459
(I1
(I2
tg7
I00
S'\xd2\xc5\xc1=E\xc7g?'
tbtp1460
a(S'/data/ad6813/pipe-data/BlueboxTemp/200844.jpg'
p1461
g3
(g4
(I0
tS'b'
tRp1462
(I1
(I2
tg7
I00
S'J\x99m?\xad5\x93='
tbtp1463
a(S'/data/ad6813/pipe-data/BlueboxTemp/200849.jpg'
p1464
g3
(g4
(I0
tS'b'
tRp1465
(I1
(I2
tg7
I00
S'm\xfcy?or\xc0<'
tbtp1466
a(S'/data/ad6813/pipe-data/BlueboxTemp/200851.jpg'
p1467
g3
(g4
(I0
tS'b'
tRp1468
(I1
(I2
tg7
I00
S'\xbb\xbcy?\xa4h\xc8<'
tbtp1469
a(S'/data/ad6813/pipe-data/BlueboxTemp/200852.jpg'
p1470
g3
(g4
(I0
tS'b'
tRp1471
(I1
(I2
tg7
I00
S'S\xf2}?\xe1j\x03<'
tbtp1472
a(S'/data/ad6813/pipe-data/BlueboxTemp/200859.jpg'
p1473
g3
(g4
(I0
tS'b'
tRp1474
(I1
(I2
tg7
I00
S'\xea\\<?-F\x87>'
tbtp1475
a(S'/data/ad6813/pipe-data/BlueboxTemp/200862.jpg'
p1476
g3
(g4
(I0
tS'b'
tRp1477
(I1
(I2
tg7
I00
S'\x83\xb3W?\xf61!>'
tbtp1478
a(S'/data/ad6813/pipe-data/BlueboxTemp/200863.jpg'
p1479
g3
(g4
(I0
tS'b'
tRp1480
(I1
(I2
tg7
I00
S'H"S?\xdfv3>'
tbtp1481
a(S'/data/ad6813/pipe-data/BlueboxTemp/200867.jpg'
p1482
g3
(g4
(I0
tS'b'
tRp1483
(I1
(I2
tg7
I00
S'3es?\xec\xacI='
tbtp1484
a(S'/data/ad6813/pipe-data/BlueboxTemp/200876.jpg'
p1485
g3
(g4
(I0
tS'b'
tRp1486
(I1
(I2
tg7
I00
S'{3^?\x132\x07>'
tbtp1487
a(S'/data/ad6813/pipe-data/BlueboxTemp/200879.jpg'
p1488
g3
(g4
(I0
tS'b'
tRp1489
(I1
(I2
tg7
I00
S'\xf0\xeb|?6\x04E<'
tbtp1490
a(S'/data/ad6813/pipe-data/BlueboxTemp/200881.jpg'
p1491
g3
(g4
(I0
tS'b'
tRp1492
(I1
(I2
tg7
I00
S'P\xc9e?\x83\xb5\xd1='
tbtp1493
a(S'/data/ad6813/pipe-data/BlueboxTemp/200915.jpg'
p1494
g3
(g4
(I0
tS'b'
tRp1495
(I1
(I2
tg7
I00
S'\xf2\x9e\r?\x1b\xc2\xe4>'
tbtp1496
a(S'/data/ad6813/pipe-data/BlueboxTemp/200918.jpg'
p1497
g3
(g4
(I0
tS'b'
tRp1498
(I1
(I2
tg7
I00
S'\x94^@?\xb0\x85~>'
tbtp1499
a(S'/data/ad6813/pipe-data/BlueboxTemp/200922.jpg'
p1500
g3
(g4
(I0
tS'b'
tRp1501
(I1
(I2
tg7
I00
S'\xae\xdck?\x89\x1a\xa1='
tbtp1502
a(S'/data/ad6813/pipe-data/BlueboxTemp/200925.jpg'
p1503
g3
(g4
(I0
tS'b'
tRp1504
(I1
(I2
tg7
I00
S'-aw?>\xed\t='
tbtp1505
a(S'/data/ad6813/pipe-data/BlueboxTemp/200926.jpg'
p1506
g3
(g4
(I0
tS'b'
tRp1507
(I1
(I2
tg7
I00
S'N\xfbz?\x1d\x96\xa0<'
tbtp1508
a(S'/data/ad6813/pipe-data/BlueboxTemp/200929.jpg'
p1509
g3
(g4
(I0
tS'b'
tRp1510
(I1
(I2
tg7
I00
S'\xf3\xb4m?^X\x92='
tbtp1511
a(S'/data/ad6813/pipe-data/BlueboxTemp/200938.jpg'
p1512
g3
(g4
(I0
tS'b'
tRp1513
(I1
(I2
tg7
I00
S'\xe0-s?\x10"M='
tbtp1514
a(S'/data/ad6813/pipe-data/BlueboxTemp/200942.jpg'
p1515
g3
(g4
(I0
tS'b'
tRp1516
(I1
(I2
tg7
I00
S'\xfa\x0b\xea>\x02\xfa\n?'
tbtp1517
a(S'/data/ad6813/pipe-data/BlueboxTemp/200943.jpg'
p1518
g3
(g4
(I0
tS'b'
tRp1519
(I1
(I2
tg7
I00
S'4P<?\x9a_\x87>'
tbtp1520
a(S'/data/ad6813/pipe-data/BlueboxTemp/200947.jpg'
p1521
g3
(g4
(I0
tS'b'
tRp1522
(I1
(I2
tg7
I00
S'\xde}E?\x83\x08j>'
tbtp1523
a(S'/data/ad6813/pipe-data/BlueboxTemp/200948.jpg'
p1524
g3
(g4
(I0
tS'b'
tRp1525
(I1
(I2
tg7
I00
S'\xff\xc6\x18?\x02r\xce>'
tbtp1526
a(S'/data/ad6813/pipe-data/BlueboxTemp/200949.jpg'
p1527
g3
(g4
(I0
tS'b'
tRp1528
(I1
(I2
tg7
I00
S'n#l?\x92\xe4\x9e='
tbtp1529
a(S'/data/ad6813/pipe-data/BlueboxTemp/200952.jpg'
p1530
g3
(g4
(I0
tS'b'
tRp1531
(I1
(I2
tg7
I00
S'$\xe1$?\xb9=\xb6>'
tbtp1532
a(S'/data/ad6813/pipe-data/BlueboxTemp/200953.jpg'
p1533
g3
(g4
(I0
tS'b'
tRp1534
(I1
(I2
tg7
I00
S'\xc5\x84}?\xbd\xce\x1e<'
tbtp1535
a(S'/data/ad6813/pipe-data/BlueboxTemp/200958.jpg'
p1536
g3
(g4
(I0
tS'b'
tRp1537
(I1
(I2
tg7
I00
S'[\x18S?\x8e\x9e3>'
tbtp1538
a(S'/data/ad6813/pipe-data/BlueboxTemp/200960.jpg'
p1539
g3
(g4
(I0
tS'b'
tRp1540
(I1
(I2
tg7
I00
S'.\x00t?\xfd\xfc?='
tbtp1541
a(S'/data/ad6813/pipe-data/BlueboxTemp/200964.jpg'
p1542
g3
(g4
(I0
tS'b'
tRp1543
(I1
(I2
tg7
I00
S'\x91\xcf\x01>\x1d\x8c_?'
tbtp1544
a(S'/data/ad6813/pipe-data/BlueboxTemp/200974.jpg'
p1545
g3
(g4
(I0
tS'b'
tRp1546
(I1
(I2
tg7
I00
S'\xc23O?\xf50C>'
tbtp1547
a(S'/data/ad6813/pipe-data/BlueboxTemp/200981.jpg'
p1548
g3
(g4
(I0
tS'b'
tRp1549
(I1
(I2
tg7
I00
S'\x93\xfef?k\x0b\xc8='
tbtp1550
a(S'/data/ad6813/pipe-data/BlueboxTemp/200988.jpg'
p1551
g3
(g4
(I0
tS'b'
tRp1552
(I1
(I2
tg7
I00
S'F\xde}?\xbbn\x08<'
tbtp1553
a(S'/data/ad6813/pipe-data/BlueboxTemp/200989.jpg'
p1554
g3
(g4
(I0
tS'b'
tRp1555
(I1
(I2
tg7
I00
S'%\x04~?\xbd\xed\xfd;'
tbtp1556
a(S'/data/ad6813/pipe-data/BlueboxTemp/200995.jpg'
p1557
g3
(g4
(I0
tS'b'
tRp1558
(I1
(I2
tg7
I00
S'6\x00w?\x98\xfc\x0f='
tbtp1559
a(S'/data/ad6813/pipe-data/BlueboxTemp/200996.jpg'
p1560
g3
(g4
(I0
tS'b'
tRp1561
(I1
(I2
tg7
I00
S'\xb2]o?g\x12\x85='
tbtp1562
a(S'/data/ad6813/pipe-data/BlueboxTemp/201008.jpg'
p1563
g3
(g4
(I0
tS'b'
tRp1564
(I1
(I2
tg7
I00
S'\xf5\\_?*\x8c\x02>'
tbtp1565
a(S'/data/ad6813/pipe-data/BlueboxTemp/201015.jpg'
p1566
g3
(g4
(I0
tS'b'
tRp1567
(I1
(I2
tg7
I00
S'\xce\xf8c?\x889\xe0='
tbtp1568
a(S'/data/ad6813/pipe-data/BlueboxTemp/201016.jpg'
p1569
g3
(g4
(I0
tS'b'
tRp1570
(I1
(I2
tg7
I00
S'~\xc0H?\x03\xfe\\>'
tbtp1571
a(S'/data/ad6813/pipe-data/BlueboxTemp/201017.jpg'
p1572
g3
(g4
(I0
tS'b'
tRp1573
(I1
(I2
tg7
I00
S'\x1e\xc3z?*\x9c\xa7<'
tbtp1574
a(S'/data/ad6813/pipe-data/BlueboxTemp/201024.jpg'
p1575
g3
(g4
(I0
tS'b'
tRp1576
(I1
(I2
tg7
I00
S'\x9b\x86`?\x1e\xcb\xfb='
tbtp1577
a(S'/data/ad6813/pipe-data/BlueboxTemp/201027.jpg'
p1578
g3
(g4
(I0
tS'b'
tRp1579
(I1
(I2
tg7
I00
S'\xe2z`?\xfd(\xfc='
tbtp1580
a(S'/data/ad6813/pipe-data/BlueboxTemp/201028.jpg'
p1581
g3
(g4
(I0
tS'b'
tRp1582
(I1
(I2
tg7
I00
S'+\xed[?RK\x10>'
tbtp1583
a(S'/data/ad6813/pipe-data/BlueboxTemp/201043.jpg'
p1584
g3
(g4
(I0
tS'b'
tRp1585
(I1
(I2
tg7
I00
S'\x11\x99\x0e?\xde\xcd\xe2>'
tbtp1586
a(S'/data/ad6813/pipe-data/BlueboxTemp/201051.jpg'
p1587
g3
(g4
(I0
tS'b'
tRp1588
(I1
(I2
tg7
I00
S'\x182\x17?\xd0\x9b\xd1>'
tbtp1589
a(S'/data/ad6813/pipe-data/BlueboxTemp/201053.jpg'
p1590
g3
(g4
(I0
tS'b'
tRp1591
(I1
(I2
tg7
I00
S'X\x8cb?F\x9d\xeb='
tbtp1592
a(S'/data/ad6813/pipe-data/BlueboxTemp/201057.jpg'
p1593
g3
(g4
(I0
tS'b'
tRp1594
(I1
(I2
tg7
I00
S'\xf5\x90s?\xb6\xf0F='
tbtp1595
a(S'/data/ad6813/pipe-data/BlueboxTemp/201059.jpg'
p1596
g3
(g4
(I0
tS'b'
tRp1597
(I1
(I2
tg7
I00
S'}\xfeS?\n\x060>'
tbtp1598
a(S'/data/ad6813/pipe-data/BlueboxTemp/201063.jpg'
p1599
g3
(g4
(I0
tS'b'
tRp1600
(I1
(I2
tg7
I00
S'\x85\xad\\?\xeeI\r>'
tbtp1601
a(S'/data/ad6813/pipe-data/BlueboxTemp/201066.jpg'
p1602
g3
(g4
(I0
tS'b'
tRp1603
(I1
(I2
tg7
I00
S'\x15\xd9a?^7\xf1='
tbtp1604
a(S'/data/ad6813/pipe-data/BlueboxTemp/201070.jpg'
p1605
g3
(g4
(I0
tS'b'
tRp1606
(I1
(I2
tg7
I00
S'\xda\x10\xe9>\x93w\x0b?'
tbtp1607
a(S'/data/ad6813/pipe-data/BlueboxTemp/201071.jpg'
p1608
g3
(g4
(I0
tS'b'
tRp1609
(I1
(I2
tg7
I00
S'M{y?Z\x96\xd0<'
tbtp1610
a(S'/data/ad6813/pipe-data/BlueboxTemp/201074.jpg'
p1611
g3
(g4
(I0
tS'b'
tRp1612
(I1
(I2
tg7
I00
S'\x83\xdew?\xcc\x17\x02='
tbtp1613
a(S'/data/ad6813/pipe-data/BlueboxTemp/201075.jpg'
p1614
g3
(g4
(I0
tS'b'
tRp1615
(I1
(I2
tg7
I00
S'\xd4\xf8E?\xb0\x1ch>'
tbtp1616
a(S'/data/ad6813/pipe-data/BlueboxTemp/201079.jpg'
p1617
g3
(g4
(I0
tS'b'
tRp1618
(I1
(I2
tg7
I00
S'x\xf9e?84\xd0='
tbtp1619
a(S'/data/ad6813/pipe-data/BlueboxTemp/201080.jpg'
p1620
g3
(g4
(I0
tS'b'
tRp1621
(I1
(I2
tg7
I00
S'\xd8\xa2W?\x9dt!>'
tbtp1622
a(S'/data/ad6813/pipe-data/BlueboxTemp/201083.jpg'
p1623
g3
(g4
(I0
tS'b'
tRp1624
(I1
(I2
tg7
I00
S'BKc?\xf8\xa5\xe5='
tbtp1625
a(S'/data/ad6813/pipe-data/BlueboxTemp/201090.jpg'
p1626
g3
(g4
(I0
tS'b'
tRp1627
(I1
(I2
tg7
I00
S'i\xceJ?]\xc6T>'
tbtp1628
a(S'/data/ad6813/pipe-data/BlueboxTemp/201091.jpg'
p1629
g3
(g4
(I0
tS'b'
tRp1630
(I1
(I2
tg7
I00
S'zcr?f\xc8Y='
tbtp1631
a(S'/data/ad6813/pipe-data/BlueboxTemp/201094.jpg'
p1632
g3
(g4
(I0
tS'b'
tRp1633
(I1
(I2
tg7
I00
S'\x83\x13`?\xe5c\xff='
tbtp1634
a(S'/data/ad6813/pipe-data/BlueboxTemp/201096.jpg'
p1635
g3
(g4
(I0
tS'b'
tRp1636
(I1
(I2
tg7
I00
S'\xb3Vm?fJ\x95='
tbtp1637
a(S'/data/ad6813/pipe-data/BlueboxTemp/201118.jpg'
p1638
g3
(g4
(I0
tS'b'
tRp1639
(I1
(I2
tg7
I00
S'v)<?\x15\xad\x87>'
tbtp1640
a(S'/data/ad6813/pipe-data/BlueboxTemp/201124.jpg'
p1641
g3
(g4
(I0
tS'b'
tRp1642
(I1
(I2
tg7
I00
S'\xd0"V?\xc1t\'>'
tbtp1643
a(S'/data/ad6813/pipe-data/BlueboxTemp/201127.jpg'
p1644
g3
(g4
(I0
tS'b'
tRp1645
(I1
(I2
tg7
I00
S'\x1bNP?\x94\xc7>>'
tbtp1646
a(S'/data/ad6813/pipe-data/BlueboxTemp/201145.jpg'
p1647
g3
(g4
(I0
tS'b'
tRp1648
(I1
(I2
tg7
I00
S'\xb6\xd4w?\x92\xb4\x02='
tbtp1649
a(S'/data/ad6813/pipe-data/BlueboxTemp/201146.jpg'
p1650
g3
(g4
(I0
tS'b'
tRp1651
(I1
(I2
tg7
I00
S'\x9aIs?\x85fK='
tbtp1652
a(S'/data/ad6813/pipe-data/BlueboxTemp/201150.jpg'
p1653
g3
(g4
(I0
tS'b'
tRp1654
(I1
(I2
tg7
I00
S'H\xbfp?{\x0bt='
tbtp1655
a(S'/data/ad6813/pipe-data/BlueboxTemp/201157.jpg'
p1656
g3
(g4
(I0
tS'b'
tRp1657
(I1
(I2
tg7
I00
S'\x18ex?\xe2\\\xf3<'
tbtp1658
a(S'/data/ad6813/pipe-data/BlueboxTemp/201158.jpg'
p1659
g3
(g4
(I0
tS'b'
tRp1660
(I1
(I2
tg7
I00
S'\xda\xf7P?\x97 <>'
tbtp1661
a(S'/data/ad6813/pipe-data/BlueboxTemp/201159.jpg'
p1662
g3
(g4
(I0
tS'b'
tRp1663
(I1
(I2
tg7
I00
S'c\x0be?\xe6\xa4\xd7='
tbtp1664
a(S'/data/ad6813/pipe-data/BlueboxTemp/201160.jpg'
p1665
g3
(g4
(I0
tS'b'
tRp1666
(I1
(I2
tg7
I00
S'\x0e\x18{?J\xfe\x9c<'
tbtp1667
a(S'/data/ad6813/pipe-data/BlueboxTemp/201171.jpg'
p1668
g3
(g4
(I0
tS'b'
tRp1669
(I1
(I2
tg7
I00
S'3\xb7\x1a?\x9b\x91\xca>'
tbtp1670
a(S'/data/ad6813/pipe-data/BlueboxTemp/201174.jpg'
p1671
g3
(g4
(I0
tS'b'
tRp1672
(I1
(I2
tg7
I00
S'\x9b\xbaq?5Vd='
tbtp1673
a(S'/data/ad6813/pipe-data/BlueboxTemp/201188.jpg'
p1674
g3
(g4
(I0
tS'b'
tRp1675
(I1
(I2
tg7
I00
S'~\x8fn?\x0f\x84\x8b='
tbtp1676
a(S'/data/ad6813/pipe-data/BlueboxTemp/201189.jpg'
p1677
g3
(g4
(I0
tS'b'
tRp1678
(I1
(I2
tg7
I00
S'C\x16n?\xe1M\x8f='
tbtp1679
a(S'/data/ad6813/pipe-data/BlueboxTemp/201193.jpg'
p1680
g3
(g4
(I0
tS'b'
tRp1681
(I1
(I2
tg7
I00
S'Ur{??\xb5\x91<'
tbtp1682
a(S'/data/ad6813/pipe-data/BlueboxTemp/201202.jpg'
p1683
g3
(g4
(I0
tS'b'
tRp1684
(I1
(I2
tg7
I00
S'+h\x8c>\xea\xcb9?'
tbtp1685
a(S'/data/ad6813/pipe-data/BlueboxTemp/201225.jpg'
p1686
g3
(g4
(I0
tS'b'
tRp1687
(I1
(I2
tg7
I00
S'-\xa6W?Qg!>'
tbtp1688
a(S'/data/ad6813/pipe-data/BlueboxTemp/201233.jpg'
p1689
g3
(g4
(I0
tS'b'
tRp1690
(I1
(I2
tg7
I00
S'"\xd63?\xbeS\x98>'
tbtp1691
a(S'/data/ad6813/pipe-data/BlueboxTemp/201237.jpg'
p1692
g3
(g4
(I0
tS'b'
tRp1693
(I1
(I2
tg7
I00
S'\xb5^\xfd>\xa6P\x01?'
tbtp1694
a(S'/data/ad6813/pipe-data/BlueboxTemp/201256.jpg'
p1695
g3
(g4
(I0
tS'b'
tRp1696
(I1
(I2
tg7
I00
S'\xbd\xdb\xc8>!\x92\x1b?'
tbtp1697
a(S'/data/ad6813/pipe-data/BlueboxTemp/201258.jpg'
p1698
g3
(g4
(I0
tS'b'
tRp1699
(I1
(I2
tg7
I00
S'\xbb\x12 >R\xfbW?'
tbtp1700
a(S'/data/ad6813/pipe-data/BlueboxTemp/201278.jpg'
p1701
g3
(g4
(I0
tS'b'
tRp1702
(I1
(I2
tg7
I00
S'\xcb\xb6g?\x9aI\xc2='
tbtp1703
a(S'/data/ad6813/pipe-data/BlueboxTemp/201279.jpg'
p1704
g3
(g4
(I0
tS'b'
tRp1705
(I1
(I2
tg7
I00
S'\xd5\xafn?a\x81\x8a='
tbtp1706
a(S'/data/ad6813/pipe-data/BlueboxTemp/201292.jpg'
p1707
g3
(g4
(I0
tS'b'
tRp1708
(I1
(I2
tg7
I00
S'\xcd\x05X?\xcd\xe8\x1f>'
tbtp1709
a(S'/data/ad6813/pipe-data/BlueboxTemp/201297.jpg'
p1710
g3
(g4
(I0
tS'b'
tRp1711
(I1
(I2
tg7
I00
S'\x03f\\?\xf4g\x0e>'
tbtp1712
a(S'/data/ad6813/pipe-data/BlueboxTemp/201305.jpg'
p1713
g3
(g4
(I0
tS'b'
tRp1714
(I1
(I2
tg7
I00
S'p\x85q?\x03\xa9g='
tbtp1715
a(S'/data/ad6813/pipe-data/BlueboxTemp/201314.jpg'
p1716
g3
(g4
(I0
tS'b'
tRp1717
(I1
(I2
tg7
I00
S'\x1d4t?;\xbe<='
tbtp1718
a(S'/data/ad6813/pipe-data/BlueboxTemp/201329.jpg'
p1719
g3
(g4
(I0
tS'b'
tRp1720
(I1
(I2
tg7
I00
S'\xf5\x96_?.\xa4\x01>'
tbtp1721
a(S'/data/ad6813/pipe-data/BlueboxTemp/201332.jpg'
p1722
g3
(g4
(I0
tS'b'
tRp1723
(I1
(I2
tg7
I00
S'J\xdaU?\xd9\x96(>'
tbtp1724
a(S'/data/ad6813/pipe-data/BlueboxTemp/201335.jpg'
p1725
g3
(g4
(I0
tS'b'
tRp1726
(I1
(I2
tg7
I00
S'\x1bx@?\x90\x1f~>'
tbtp1727
a(S'/data/ad6813/pipe-data/BlueboxTemp/201338.jpg'
p1728
g3
(g4
(I0
tS'b'
tRp1729
(I1
(I2
tg7
I00
S'6MQ?&\xcb:>'
tbtp1730
a(S'/data/ad6813/pipe-data/BlueboxTemp/201342.jpg'
p1731
g3
(g4
(I0
tS'b'
tRp1732
(I1
(I2
tg7
I00
S'\xb6f^?"e\x06>'
tbtp1733
a(S'/data/ad6813/pipe-data/BlueboxTemp/201346.jpg'
p1734
g3
(g4
(I0
tS'b'
tRp1735
(I1
(I2
tg7
I00
S'\xa0\x04~?\xab\xb0\xfd;'
tbtp1736
a(S'/data/ad6813/pipe-data/BlueboxTemp/201349.jpg'
p1737
g3
(g4
(I0
tS'b'
tRp1738
(I1
(I2
tg7
I00
S'\x95.\x16?\xd6\xa2\xd3>'
tbtp1739
a(S'/data/ad6813/pipe-data/BlueboxTemp/201351.jpg'
p1740
g3
(g4
(I0
tS'b'
tRp1741
(I1
(I2
tg7
I00
S'J\x98B?\xdd\x9eu>'
tbtp1742
a(S'/data/ad6813/pipe-data/BlueboxTemp/201355.jpg'
p1743
g3
(g4
(I0
tS'b'
tRp1744
(I1
(I2
tg7
I00
S'\xf0\xecf?{\x98\xc8='
tbtp1745
a(S'/data/ad6813/pipe-data/BlueboxTemp/201357.jpg'
p1746
g3
(g4
(I0
tS'b'
tRp1747
(I1
(I2
tg7
I00
S'\xdd\xe7/>\x08\x06T?'
tbtp1748
a(S'/data/ad6813/pipe-data/BlueboxTemp/201358.jpg'
p1749
g3
(g4
(I0
tS'b'
tRp1750
(I1
(I2
tg7
I00
S'\xab\xbca?\xb0\x1a\xf2='
tbtp1751
a(S'/data/ad6813/pipe-data/BlueboxTemp/201359.jpg'
p1752
g3
(g4
(I0
tS'b'
tRp1753
(I1
(I2
tg7
I00
S'\x9b\xfae?%+\xd0='
tbtp1754
a(S'/data/ad6813/pipe-data/BlueboxTemp/201361.jpg'
p1755
g3
(g4
(I0
tS'b'
tRp1756
(I1
(I2
tg7
I00
S'\xa6vR?i%6>'
tbtp1757
a(S'/data/ad6813/pipe-data/BlueboxTemp/201371.jpg'
p1758
g3
(g4
(I0
tS'b'
tRp1759
(I1
(I2
tg7
I00
S'r\x12t?\xeb\xd8>='
tbtp1760
a(S'/data/ad6813/pipe-data/BlueboxTemp/201372.jpg'
p1761
g3
(g4
(I0
tS'b'
tRp1762
(I1
(I2
tg7
I00
S'vu~?ND\xc5;'
tbtp1763
a(S'/data/ad6813/pipe-data/BlueboxTemp/201384.jpg'
p1764
g3
(g4
(I0
tS'b'
tRp1765
(I1
(I2
tg7
I00
S'7\x88B?"\xdfu>'
tbtp1766
a(S'/data/ad6813/pipe-data/BlueboxTemp/201385.jpg'
p1767
g3
(g4
(I0
tS'b'
tRp1768
(I1
(I2
tg7
I00
S'N\xa9V?\xc6Z%>'
tbtp1769
a(S'/data/ad6813/pipe-data/BlueboxTemp/201388.jpg'
p1770
g3
(g4
(I0
tS'b'
tRp1771
(I1
(I2
tg7
I00
S'\x8aOm?\xb4\x83\x95='
tbtp1772
a(S'/data/ad6813/pipe-data/BlueboxTemp/201394.jpg'
p1773
g3
(g4
(I0
tS'b'
tRp1774
(I1
(I2
tg7
I00
S'\x16\x99\xd0>t\xb3\x17?'
tbtp1775
a(S'/data/ad6813/pipe-data/BlueboxTemp/201398.jpg'
p1776
g3
(g4
(I0
tS'b'
tRp1777
(I1
(I2
tg7
I00
S'\x0e,-?\xe3\xa7\xa5>'
tbtp1778
a(S'/data/ad6813/pipe-data/BlueboxTemp/201403.jpg'
p1779
g3
(g4
(I0
tS'b'
tRp1780
(I1
(I2
tg7
I00
S'k\x0cR?R\xce7>'
tbtp1781
a(S'/data/ad6813/pipe-data/BlueboxTemp/201415.jpg'
p1782
g3
(g4
(I0
tS'b'
tRp1783
(I1
(I2
tg7
I00
S'\xc2\xddL?\xfd\x88L>'
tbtp1784
a(S'/data/ad6813/pipe-data/BlueboxTemp/201427.jpg'
p1785
g3
(g4
(I0
tS'b'
tRp1786
(I1
(I2
tg7
I00
S'\x98\x02\xc7>\xb4~\x1c?'
tbtp1787
a(S'/data/ad6813/pipe-data/BlueboxTemp/201434.jpg'
p1788
g3
(g4
(I0
tS'b'
tRp1789
(I1
(I2
tg7
I00
S'\xfe\x8cB?\x0b\xccu>'
tbtp1790
a(S'/data/ad6813/pipe-data/BlueboxTemp/201437.jpg'
p1791
g3
(g4
(I0
tS'b'
tRp1792
(I1
(I2
tg7
I00
S'\xfb\xbcv?A0\x14='
tbtp1793
a(S'/data/ad6813/pipe-data/BlueboxTemp/201440.jpg'
p1794
g3
(g4
(I0
tS'b'
tRp1795
(I1
(I2
tg7
I00
S'\xf6os?\x91\x00I='
tbtp1796
a(S'/data/ad6813/pipe-data/BlueboxTemp/201442.jpg'
p1797
g3
(g4
(I0
tS'b'
tRp1798
(I1
(I2
tg7
I00
S'-ka?\x9e\xa6\xf4='
tbtp1799
a(S'/data/ad6813/pipe-data/BlueboxTemp/201443.jpg'
p1800
g3
(g4
(I0
tS'b'
tRp1801
(I1
(I2
tg7
I00
S'2\x1a{?\xbe\xb9\x9c<'
tbtp1802
a(S'/data/ad6813/pipe-data/BlueboxTemp/201445.jpg'
p1803
g3
(g4
(I0
tS'b'
tRp1804
(I1
(I2
tg7
I00
S'=\xa4\x00?\x85\xb7\xfe>'
tbtp1805
a(S'/data/ad6813/pipe-data/BlueboxTemp/201446.jpg'
p1806
g3
(g4
(I0
tS'b'
tRp1807
(I1
(I2
tg7
I00
S'\xd8\xa4\x01?P\xb6\xfc>'
tbtp1808
a(S'/data/ad6813/pipe-data/BlueboxTemp/201449.jpg'
p1809
g3
(g4
(I0
tS'b'
tRp1810
(I1
(I2
tg7
I00
S'1bK?;wR>'
tbtp1811
a(S'/data/ad6813/pipe-data/BlueboxTemp/201455.jpg'
p1812
g3
(g4
(I0
tS'b'
tRp1813
(I1
(I2
tg7
I00
S'\xd1\xc6\r?^r\xe4>'
tbtp1814
a(S'/data/ad6813/pipe-data/BlueboxTemp/201458.jpg'
p1815
g3
(g4
(I0
tS'b'
tRp1816
(I1
(I2
tg7
I00
S'\xcc\x9fB>\rXO?'
tbtp1817
a(S'/data/ad6813/pipe-data/BlueboxTemp/201463.jpg'
p1818
g3
(g4
(I0
tS'b'
tRp1819
(I1
(I2
tg7
I00
S'\xc0/z?\xe1\x07\xba<'
tbtp1820
a(S'/data/ad6813/pipe-data/BlueboxTemp/201466.jpg'
p1821
g3
(g4
(I0
tS'b'
tRp1822
(I1
(I2
tg7
I00
S'\x95\xf5q?\xbb\xa6`='
tbtp1823
a(S'/data/ad6813/pipe-data/BlueboxTemp/201470.jpg'
p1824
g3
(g4
(I0
tS'b'
tRp1825
(I1
(I2
tg7
I00
S'\xe5\x1fr?\xb0\x01^='
tbtp1826
a(S'/data/ad6813/pipe-data/BlueboxTemp/201488.jpg'
p1827
g3
(g4
(I0
tS'b'
tRp1828
(I1
(I2
tg7
I00
S'V\x94[?\xa6\xae\x11>'
tbtp1829
a(S'/data/ad6813/pipe-data/BlueboxTemp/201504.jpg'
p1830
g3
(g4
(I0
tS'b'
tRp1831
(I1
(I2
tg7
I00
S'\x1e\x06K?\x88\xe7S>'
tbtp1832
a(S'/data/ad6813/pipe-data/BlueboxTemp/201508.jpg'
p1833
g3
(g4
(I0
tS'b'
tRp1834
(I1
(I2
tg7
I00
S'\x05lt?\xa2?9='
tbtp1835
a(S'/data/ad6813/pipe-data/BlueboxTemp/201531.jpg'
p1836
g3
(g4
(I0
tS'b'
tRp1837
(I1
(I2
tg7
I00
S'u\xc0i?K\xfc\xb1='
tbtp1838
a(S'/data/ad6813/pipe-data/BlueboxTemp/201534.jpg'
p1839
g3
(g4
(I0
tS'b'
tRp1840
(I1
(I2
tg7
I00
S'u\xdcc?^\x1c\xe1='
tbtp1841
a(S'/data/ad6813/pipe-data/BlueboxTemp/201546.jpg'
p1842
g3
(g4
(I0
tS'b'
tRp1843
(I1
(I2
tg7
I00
S'\xd3\xc1u?\xd2\xe2#='
tbtp1844
a(S'/data/ad6813/pipe-data/BlueboxTemp/201548.jpg'
p1845
g3
(g4
(I0
tS'b'
tRp1846
(I1
(I2
tg7
I00
S'\x8a\x99]?\xd9\x99\t>'
tbtp1847
a(S'/data/ad6813/pipe-data/BlueboxTemp/201554.jpg'
p1848
g3
(g4
(I0
tS'b'
tRp1849
(I1
(I2
tg7
I00
S'\x96M`?J\x93\xfd='
tbtp1850
a(S'/data/ad6813/pipe-data/BlueboxTemp/201556.jpg'
p1851
g3
(g4
(I0
tS'b'
tRp1852
(I1
(I2
tg7
I00
S'\xebay?k\xc2\xd3<'
tbtp1853
a(S'/data/ad6813/pipe-data/BlueboxTemp/201560.jpg'
p1854
g3
(g4
(I0
tS'b'
tRp1855
(I1
(I2
tg7
I00
S'\x8aTx?\x92n\xf5<'
tbtp1856
a(S'/data/ad6813/pipe-data/BlueboxTemp/201575.jpg'
p1857
g3
(g4
(I0
tS'b'
tRp1858
(I1
(I2
tg7
I00
S'\xebHo?\xb2\xb8\x85='
tbtp1859
a(S'/data/ad6813/pipe-data/BlueboxTemp/201584.jpg'
p1860
g3
(g4
(I0
tS'b'
tRp1861
(I1
(I2
tg7
I00
S' \x90\x00?\xc2\xdf\xfe>'
tbtp1862
a(S'/data/ad6813/pipe-data/BlueboxTemp/201590.jpg'
p1863
g3
(g4
(I0
tS'b'
tRp1864
(I1
(I2
tg7
I00
S'\xd5\x06U?\xac\xe4+>'
tbtp1865
a(S'/data/ad6813/pipe-data/BlueboxTemp/201595.jpg'
p1866
g3
(g4
(I0
tS'b'
tRp1867
(I1
(I2
tg7
I00
S'\xa5\x9cT?l\x8d->'
tbtp1868
a(S'/data/ad6813/pipe-data/BlueboxTemp/201608.jpg'
p1869
g3
(g4
(I0
tS'b'
tRp1870
(I1
(I2
tg7
I00
S'CJN?\xf7\xd6F>'
tbtp1871
a(S'/data/ad6813/pipe-data/BlueboxTemp/201609.jpg'
p1872
g3
(g4
(I0
tS'b'
tRp1873
(I1
(I2
tg7
I00
S'N\x16H?\xca\xa6_>'
tbtp1874
a(S'/data/ad6813/pipe-data/BlueboxTemp/201621.jpg'
p1875
g3
(g4
(I0
tS'b'
tRp1876
(I1
(I2
tg7
I00
S'\xa6H~?\xce\xab\xdb;'
tbtp1877
a(S'/data/ad6813/pipe-data/BlueboxTemp/201624.jpg'
p1878
g3
(g4
(I0
tS'b'
tRp1879
(I1
(I2
tg7
I00
S'\x18]{?\xce\\\x94<'
tbtp1880
a(S'/data/ad6813/pipe-data/BlueboxTemp/201651.jpg'
p1881
g3
(g4
(I0
tS'b'
tRp1882
(I1
(I2
tg7
I00
S'\xaa\xaei?\xae\x8a\xb2='
tbtp1883
a(S'/data/ad6813/pipe-data/BlueboxTemp/201654.jpg'
p1884
g3
(g4
(I0
tS'b'
tRp1885
(I1
(I2
tg7
I00
S'\xc8CZ?\xe3\xf0\x16>'
tbtp1886
a(S'/data/ad6813/pipe-data/BlueboxTemp/201655.jpg'
p1887
g3
(g4
(I0
tS'b'
tRp1888
(I1
(I2
tg7
I00
S'\xba5\x05?\x8d\x94\xf5>'
tbtp1889
a(S'/data/ad6813/pipe-data/BlueboxTemp/201676.jpg'
p1890
g3
(g4
(I0
tS'b'
tRp1891
(I1
(I2
tg7
I00
S'\xd5\x9b}?\x95\n\x19<'
tbtp1892
a(S'/data/ad6813/pipe-data/BlueboxTemp/201677.jpg'
p1893
g3
(g4
(I0
tS'b'
tRp1894
(I1
(I2
tg7
I00
S'\xd5S0?XX\x9f>'
tbtp1895
a(S'/data/ad6813/pipe-data/BlueboxTemp/201691.jpg'
p1896
g3
(g4
(I0
tS'b'
tRp1897
(I1
(I2
tg7
I00
S'\xf6\xbfT?&\x00->'
tbtp1898
a(S'/data/ad6813/pipe-data/BlueboxTemp/201697.jpg'
p1899
g3
(g4
(I0
tS'b'
tRp1900
(I1
(I2
tg7
I00
S']5l?\x12U\x9e='
tbtp1901
a(S'/data/ad6813/pipe-data/BlueboxTemp/201702.jpg'
p1902
g3
(g4
(I0
tS'b'
tRp1903
(I1
(I2
tg7
I00
S'}\xd8|?\xdd\xe0I<'
tbtp1904
a(S'/data/ad6813/pipe-data/BlueboxTemp/201718.jpg'
p1905
g3
(g4
(I0
tS'b'
tRp1906
(I1
(I2
tg7
I00
S'\xb5TL?+\xadN>'
tbtp1907
a(S'/data/ad6813/pipe-data/BlueboxTemp/201737.jpg'
p1908
g3
(g4
(I0
tS'b'
tRp1909
(I1
(I2
tg7
I00
S'\n-;?\xed\xa5\x89>'
tbtp1910
a(S'/data/ad6813/pipe-data/BlueboxTemp/201741.jpg'
p1911
g3
(g4
(I0
tS'b'
tRp1912
(I1
(I2
tg7
I00
S'~\x06i?\x14\xcc\xb7='
tbtp1913
a(S'/data/ad6813/pipe-data/BlueboxTemp/201742.jpg'
p1914
g3
(g4
(I0
tS'b'
tRp1915
(I1
(I2
tg7
I00
S'\xb5\xb0k?Yz\xa2='
tbtp1916
a(S'/data/ad6813/pipe-data/BlueboxTemp/201765.jpg'
p1917
g3
(g4
(I0
tS'b'
tRp1918
(I1
(I2
tg7
I00
S'\xf7yA?"\x18z>'
tbtp1919
a(S'/data/ad6813/pipe-data/BlueboxTemp/201768.jpg'
p1920
g3
(g4
(I0
tS'b'
tRp1921
(I1
(I2
tg7
I00
S'V\xf4h?F]\xb8='
tbtp1922
a(S'/data/ad6813/pipe-data/BlueboxTemp/201780.jpg'
p1923
g3
(g4
(I0
tS'b'
tRp1924
(I1
(I2
tg7
I00
S')\x89"?\xb0\xed\xba>'
tbtp1925
a(S'/data/ad6813/pipe-data/BlueboxTemp/201783.jpg'
p1926
g3
(g4
(I0
tS'b'
tRp1927
(I1
(I2
tg7
I00
S'\xcd\xddj?\x98\x11\xa9='
tbtp1928
a(S'/data/ad6813/pipe-data/BlueboxTemp/201793.jpg'
p1929
g3
(g4
(I0
tS'b'
tRp1930
(I1
(I2
tg7
I00
S'\xce\xcc\\?\xc6\xcc\x0c>'
tbtp1931
a(S'/data/ad6813/pipe-data/BlueboxTemp/201794.jpg'
p1932
g3
(g4
(I0
tS'b'
tRp1933
(I1
(I2
tg7
I00
S'B\xbde?\xe8\x15\xd2='
tbtp1934
a(S'/data/ad6813/pipe-data/BlueboxTemp/201795.jpg'
p1935
g3
(g4
(I0
tS'b'
tRp1936
(I1
(I2
tg7
I00
S'\xc3\x92B?\xf6\xb4u>'
tbtp1937
a(S'/data/ad6813/pipe-data/BlueboxTemp/201800.jpg'
p1938
g3
(g4
(I0
tS'b'
tRp1939
(I1
(I2
tg7
I00
S'\xb0aA?>yz>'
tbtp1940
a(S'/data/ad6813/pipe-data/BlueboxTemp/201804.jpg'
p1941
g3
(g4
(I0
tS'b'
tRp1942
(I1
(I2
tg7
I00
S'\xfe(l?\x18\xb8\x9e='
tbtp1943
a(S'/data/ad6813/pipe-data/BlueboxTemp/201807.jpg'
p1944
g3
(g4
(I0
tS'b'
tRp1945
(I1
(I2
tg7
I00
S'j\x7f\xbc>J\xc0!?'
tbtp1946
a(S'/data/ad6813/pipe-data/BlueboxTemp/201808.jpg'
p1947
g3
(g4
(I0
tS'b'
tRp1948
(I1
(I2
tg7
I00
S'\xe5Kj?\xe4\xa0\xad='
tbtp1949
a(S'/data/ad6813/pipe-data/BlueboxTemp/201810.jpg'
p1950
g3
(g4
(I0
tS'b'
tRp1951
(I1
(I2
tg7
I00
S'n\xbdf?\x8e\x14\xca='
tbtp1952
a(S'/data/ad6813/pipe-data/BlueboxTemp/201811.jpg'
p1953
g3
(g4
(I0
tS'b'
tRp1954
(I1
(I2
tg7
I00
S'\xfa\xaeT?\x1aD->'
tbtp1955
a(S'/data/ad6813/pipe-data/BlueboxTemp/201819.jpg'
p1956
g3
(g4
(I0
tS'b'
tRp1957
(I1
(I2
tg7
I00
S"\x1a;n?:'\x8e="
tbtp1958
a(S'/data/ad6813/pipe-data/BlueboxTemp/201829.jpg'
p1959
g3
(g4
(I0
tS'b'
tRp1960
(I1
(I2
tg7
I00
S'\xe2\x13P?~\xb0?>'
tbtp1961
a(S'/data/ad6813/pipe-data/BlueboxTemp/201833.jpg'
p1962
g3
(g4
(I0
tS'b'
tRp1963
(I1
(I2
tg7
I00
S'5fn?Z\xce\x8c='
tbtp1964
a(S'/data/ad6813/pipe-data/BlueboxTemp/201840.jpg'
p1965
g3
(g4
(I0
tS'b'
tRp1966
(I1
(I2
tg7
I00
S'\x8b\x98v?Xw\x16='
tbtp1967
a(S'/data/ad6813/pipe-data/BlueboxTemp/201844.jpg'
p1968
g3
(g4
(I0
tS'b'
tRp1969
(I1
(I2
tg7
I00
S'@\x80}?\x12\xf0\x1f<'
tbtp1970
a(S'/data/ad6813/pipe-data/BlueboxTemp/201855.jpg'
p1971
g3
(g4
(I0
tS'b'
tRp1972
(I1
(I2
tg7
I00
S'\x10\x80y?\xf2\xfd\xcf<'
tbtp1973
a(S'/data/ad6813/pipe-data/BlueboxTemp/201856.jpg'
p1974
g3
(g4
(I0
tS'b'
tRp1975
(I1
(I2
tg7
I00
S'\xc8|}?\n\xce <'
tbtp1976
a(S'/data/ad6813/pipe-data/BlueboxTemp/201866.jpg'
p1977
g3
(g4
(I0
tS'b'
tRp1978
(I1
(I2
tg7
I00
S'm\x1c{?Fr\x9c<'
tbtp1979
a(S'/data/ad6813/pipe-data/BlueboxTemp/201872.jpg'
p1980
g3
(g4
(I0
tS'b'
tRp1981
(I1
(I2
tg7
I00
S'\xea\xe0}?\xa0\xc5\x07<'
tbtp1982
a(S'/data/ad6813/pipe-data/BlueboxTemp/201886.jpg'
p1983
g3
(g4
(I0
tS'b'
tRp1984
(I1
(I2
tg7
I00
S'\xf61\xfb>\x05g\x02?'
tbtp1985
a(S'/data/ad6813/pipe-data/BlueboxTemp/201889.jpg'
p1986
g3
(g4
(I0
tS'b'
tRp1987
(I1
(I2
tg7
I00
S'\x1a\x17[?\x9b\xa3\x13>'
tbtp1988
a(S'/data/ad6813/pipe-data/BlueboxTemp/201890.jpg'
p1989
g3
(g4
(I0
tS'b'
tRp1990
(I1
(I2
tg7
I00
S'\x02\xf4f?\xf1_\xc8='
tbtp1991
a(S'/data/ad6813/pipe-data/BlueboxTemp/201891.jpg'
p1992
g3
(g4
(I0
tS'b'
tRp1993
(I1
(I2
tg7
I00
S'\xfe\xbdR?\x06\x085>'
tbtp1994
a(S'/data/ad6813/pipe-data/BlueboxTemp/201892.jpg'
p1995
g3
(g4
(I0
tS'b'
tRp1996
(I1
(I2
tg7
I00
S'h\xbb\\?a\x12\r>'
tbtp1997
a(S'/data/ad6813/pipe-data/BlueboxTemp/201898.jpg'
p1998
g3
(g4
(I0
tS'b'
tRp1999
(I1
(I2
tg7
I00
S'\xcdUu?2\xa3*='
tbtp2000
a(S'/data/ad6813/pipe-data/BlueboxTemp/201916.jpg'
p2001
g3
(g4
(I0
tS'b'
tRp2002
(I1
(I2
tg7
I00
S'@X|?"\xf0i<'
tbtp2003
a(S'/data/ad6813/pipe-data/BlueboxTemp/201921.jpg'
p2004
g3
(g4
(I0
tS'b'
tRp2005
(I1
(I2
tg7
I00
S'\xb8\x1e~?\xdb\xa3\xf0;'
tbtp2006
a(S'/data/ad6813/pipe-data/BlueboxTemp/201922.jpg'
p2007
g3
(g4
(I0
tS'b'
tRp2008
(I1
(I2
tg7
I00
S'\xce\\|?;\xcch<'
tbtp2009
a(S'/data/ad6813/pipe-data/BlueboxTemp/201924.jpg'
p2010
g3
(g4
(I0
tS'b'
tRp2011
(I1
(I2
tg7
I00
S'=\xc8y?k\xf8\xc6<'
tbtp2012
a(S'/data/ad6813/pipe-data/BlueboxTemp/201926.jpg'
p2013
g3
(g4
(I0
tS'b'
tRp2014
(I1
(I2
tg7
I00
S'\x8e\x04\x12?\xe0\xf6\xdb>'
tbtp2015
a(S'/data/ad6813/pipe-data/BlueboxTemp/201927.jpg'
p2016
g3
(g4
(I0
tS'b'
tRp2017
(I1
(I2
tg7
I00
S'\xe7\x02<?2\xfa\x87>'
tbtp2018
a(S'/data/ad6813/pipe-data/BlueboxTemp/201935.jpg'
p2019
g3
(g4
(I0
tS'b'
tRp2020
(I1
(I2
tg7
I00
S'I%7?o\xb5\x91>'
tbtp2021
a(S'/data/ad6813/pipe-data/BlueboxTemp/201937.jpg'
p2022
g3
(g4
(I0
tS'b'
tRp2023
(I1
(I2
tg7
I00
S'\xf6\xa6g?O\xc8\xc2='
tbtp2024
a(S'/data/ad6813/pipe-data/BlueboxTemp/201939.jpg'
p2025
g3
(g4
(I0
tS'b'
tRp2026
(I1
(I2
tg7
I00
S'\xe5\x982?8\xce\x9a>'
tbtp2027
a(S'/data/ad6813/pipe-data/BlueboxTemp/201942.jpg'
p2028
g3
(g4
(I0
tS'b'
tRp2029
(I1
(I2
tg7
I00
S'\xee\x925?$\xda\x94>'
tbtp2030
a(S'/data/ad6813/pipe-data/BlueboxTemp/201951.jpg'
p2031
g3
(g4
(I0
tS'b'
tRp2032
(I1
(I2
tg7
I00
S"6'f?E\xc6\xce="
tbtp2033
a(S'/data/ad6813/pipe-data/BlueboxTemp/201977.jpg'
p2034
g3
(g4
(I0
tS'b'
tRp2035
(I1
(I2
tg7
I00
S"\x18\xf6[?\x9c'\x10>"
tbtp2036
a(S'/data/ad6813/pipe-data/BlueboxTemp/201986.jpg'
p2037
g3
(g4
(I0
tS'b'
tRp2038
(I1
(I2
tg7
I00
S'\xca8^?\xda\x1c\x07>'
tbtp2039
a(S'/data/ad6813/pipe-data/BlueboxTemp/201987.jpg'
p2040
g3
(g4
(I0
tS'b'
tRp2041
(I1
(I2
tg7
I00
S'\xc0\xcaa?\xf6\xa9\xf1='
tbtp2042
a(S'/data/ad6813/pipe-data/BlueboxTemp/201988.jpg'
p2043
g3
(g4
(I0
tS'b'
tRp2044
(I1
(I2
tg7
I00
S'\xb8\xc8h?9\xba\xb9='
tbtp2045
a(S'/data/ad6813/pipe-data/BlueboxTemp/201991.jpg'
p2046
g3
(g4
(I0
tS'b'
tRp2047
(I1
(I2
tg7
I00
S'\xde\xfe{?=$\x80<'
tbtp2048
a(S'/data/ad6813/pipe-data/BlueboxTemp/201999.jpg'
p2049
g3
(g4
(I0
tS'b'
tRp2050
(I1
(I2
tg7
I00
S'R\xd4@?\xb5\xae|>'
tbtp2051
a(S'/data/ad6813/pipe-data/BlueboxTemp/202003.jpg'
p2052
g3
(g4
(I0
tS'b'
tRp2053
(I1
(I2
tg7
I00
S'\xd8%[?\x9eh\x13>'
tbtp2054
a(S'/data/ad6813/pipe-data/BlueboxTemp/202004.jpg'
p2055
g3
(g4
(I0
tS'b'
tRp2056
(I1
(I2
tg7
I00
S'01\\?F;\x0f>'
tbtp2057
a(S'/data/ad6813/pipe-data/BlueboxTemp/202006.jpg'
p2058
g3
(g4
(I0
tS'b'
tRp2059
(I1
(I2
tg7
I00
S'K#v?2\xcb\x1d='
tbtp2060
a(S'/data/ad6813/pipe-data/BlueboxTemp/202007.jpg'
p2061
g3
(g4
(I0
tS'b'
tRp2062
(I1
(I2
tg7
I00
S'\xbewl?\x12B\x9c='
tbtp2063
a(S'/data/ad6813/pipe-data/BlueboxTemp/202012.jpg'
p2064
g3
(g4
(I0
tS'b'
tRp2065
(I1
(I2
tg7
I00
S'`\xa0V?\x7f~%>'
tbtp2066
a(S'/data/ad6813/pipe-data/BlueboxTemp/202030.jpg'
p2067
g3
(g4
(I0
tS'b'
tRp2068
(I1
(I2
tg7
I00
S's\x16i?qL\xb7='
tbtp2069
a(S'/data/ad6813/pipe-data/BlueboxTemp/202045.jpg'
p2070
g3
(g4
(I0
tS'b'
tRp2071
(I1
(I2
tg7
I00
S'x\x8ez?\x0e1\xae<'
tbtp2072
a(S'/data/ad6813/pipe-data/BlueboxTemp/202047.jpg'
p2073
g3
(g4
(I0
tS'b'
tRp2074
(I1
(I2
tg7
I00
S'P\x85}?\x90\xab\x1e<'
tbtp2075
a(S'/data/ad6813/pipe-data/BlueboxTemp/202048.jpg'
p2076
g3
(g4
(I0
tS'b'
tRp2077
(I1
(I2
tg7
I00
S':\x1fo?2\x06\x87='
tbtp2078
a(S'/data/ad6813/pipe-data/BlueboxTemp/202049.jpg'
p2079
g3
(g4
(I0
tS'b'
tRp2080
(I1
(I2
tg7
I00
S'Z\ne?>\xad\xd7='
tbtp2081
a(S'/data/ad6813/pipe-data/BlueboxTemp/202050.jpg'
p2082
g3
(g4
(I0
tS'b'
tRp2083
(I1
(I2
tg7
I00
S'\x1e\x9d=?\xc2\xc5\x84>'
tbtp2084
a(S'/data/ad6813/pipe-data/BlueboxTemp/202070.jpg'
p2085
g3
(g4
(I0
tS'b'
tRp2086
(I1
(I2
tg7
I00
S'f@U?l\xfe*>'
tbtp2087
a(S'/data/ad6813/pipe-data/BlueboxTemp/202103.jpg'
p2088
g3
(g4
(I0
tS'b'
tRp2089
(I1
(I2
tg7
I00
S'\xf5\xf0h?Wx\xb8='
tbtp2090
a(S'/data/ad6813/pipe-data/BlueboxTemp/202105.jpg'
p2091
g3
(g4
(I0
tS'b'
tRp2092
(I1
(I2
tg7
I00
S'\x9660?\xd5\x92\x9f>'
tbtp2093
a(S'/data/ad6813/pipe-data/BlueboxTemp/202106.jpg'
p2094
g3
(g4
(I0
tS'b'
tRp2095
(I1
(I2
tg7
I00
S'\x89eA?\xddiz>'
tbtp2096
a(S'/data/ad6813/pipe-data/BlueboxTemp/202114.jpg'
p2097
g3
(g4
(I0
tS'b'
tRp2098
(I1
(I2
tg7
I00
S'\x9eNs?.\x16K='
tbtp2099
a(S'/data/ad6813/pipe-data/BlueboxTemp/202119.jpg'
p2100
g3
(g4
(I0
tS'b'
tRp2101
(I1
(I2
tg7
I00
S'\xf6\xf9e?F0\xd0='
tbtp2102
a(S'/data/ad6813/pipe-data/BlueboxTemp/202128.jpg'
p2103
g3
(g4
(I0
tS'b'
tRp2104
(I1
(I2
tg7
I00
S'\r\x13d?\xa8g\xdf='
tbtp2105
a(S'/data/ad6813/pipe-data/BlueboxTemp/202139.jpg'
p2106
g3
(g4
(I0
tS'b'
tRp2107
(I1
(I2
tg7
I00
S'\xad\xe0H?M}\\>'
tbtp2108
a(S'/data/ad6813/pipe-data/BlueboxTemp/202140.jpg'
p2109
g3
(g4
(I0
tS'b'
tRp2110
(I1
(I2
tg7
I00
S'V\xb3m?8e\x92='
tbtp2111
a(S'/data/ad6813/pipe-data/BlueboxTemp/202154.jpg'
p2112
g3
(g4
(I0
tS'b'
tRp2113
(I1
(I2
tg7
I00
S'&\xfbF?j\x13d>'
tbtp2114
a(S'/data/ad6813/pipe-data/BlueboxTemp/202155.jpg'
p2115
g3
(g4
(I0
tS'b'
tRp2116
(I1
(I2
tg7
I00
S'\xdbYU?\x93\x98*>'
tbtp2117
a(S'/data/ad6813/pipe-data/BlueboxTemp/202188.jpg'
p2118
g3
(g4
(I0
tS'b'
tRp2119
(I1
(I2
tg7
I00
S'=\x8d~?\xbea\xb9;'
tbtp2120
a(S'/data/ad6813/pipe-data/BlueboxTemp/202194.jpg'
p2121
g3
(g4
(I0
tS'b'
tRp2122
(I1
(I2
tg7
I00
S'\xd2\x041?\\\xf6\x9d>'
tbtp2123
a(S'/data/ad6813/pipe-data/BlueboxTemp/202195.jpg'
p2124
g3
(g4
(I0
tS'b'
tRp2125
(I1
(I2
tg7
I00
S'C\x03q?\xdb\xcbo='
tbtp2126
a(S'/data/ad6813/pipe-data/BlueboxTemp/202196.jpg'
p2127
g3
(g4
(I0
tS'b'
tRp2128
(I1
(I2
tg7
I00
S'\xe6oK?f@R>'
tbtp2129
a(S'/data/ad6813/pipe-data/BlueboxTemp/202198.jpg'
p2130
g3
(g4
(I0
tS'b'
tRp2131
(I1
(I2
tg7
I00
S'\n\xef_?\xd8C\x00>'
tbtp2132
a(S'/data/ad6813/pipe-data/BlueboxTemp/202205.jpg'
p2133
g3
(g4
(I0
tS'b'
tRp2134
(I1
(I2
tg7
I00
S']mp?0*y='
tbtp2135
a(S'/data/ad6813/pipe-data/BlueboxTemp/202217.jpg'
p2136
g3
(g4
(I0
tS'b'
tRp2137
(I1
(I2
tg7
I00
S'\xd8\x9cr?p2V='
tbtp2138
a(S'/data/ad6813/pipe-data/BlueboxTemp/202222.jpg'
p2139
g3
(g4
(I0
tS'b'
tRp2140
(I1
(I2
tg7
I00
S'\xbe\xccl?\x0e\x9a\x99='
tbtp2141
a(S'/data/ad6813/pipe-data/BlueboxTemp/202225.jpg'
p2142
g3
(g4
(I0
tS'b'
tRp2143
(I1
(I2
tg7
I00
S'%\xc3q?\xa8\xcdc='
tbtp2144
a(S'/data/ad6813/pipe-data/BlueboxTemp/202231.jpg'
p2145
g3
(g4
(I0
tS'b'
tRp2146
(I1
(I2
tg7
I00
S'\x8b\xddT>\x9d\xc8J?'
tbtp2147
a(S'/data/ad6813/pipe-data/BlueboxTemp/202278.jpg'
p2148
g3
(g4
(I0
tS'b'
tRp2149
(I1
(I2
tg7
I00
S'\xd2ta?uY\xf4='
tbtp2150
a(S'/data/ad6813/pipe-data/BlueboxTemp/202280.jpg'
p2151
g3
(g4
(I0
tS'b'
tRp2152
(I1
(I2
tg7
I00
S'B\x08M?\xfc\xdeK>'
tbtp2153
a(S'/data/ad6813/pipe-data/BlueboxTemp/202288.jpg'
p2154
g3
(g4
(I0
tS'b'
tRp2155
(I1
(I2
tg7
I00
S'-Le?\x95\x9e\xd5='
tbtp2156
a(S'/data/ad6813/pipe-data/BlueboxTemp/202294.jpg'
p2157
g3
(g4
(I0
tS'b'
tRp2158
(I1
(I2
tg7
I00
S'>uq?\x1a\xach='
tbtp2159
a(S'/data/ad6813/pipe-data/BlueboxTemp/202295.jpg'
p2160
g3
(g4
(I0
tS'b'
tRp2161
(I1
(I2
tg7
I00
S'\xc3\xc4}?>\xcf\x0e<'
tbtp2162
a(S'/data/ad6813/pipe-data/BlueboxTemp/202299.jpg'
p2163
g3
(g4
(I0
tS'b'
tRp2164
(I1
(I2
tg7
I00
S'\xda\xfc{?\xabd\x80<'
tbtp2165
a(S'/data/ad6813/pipe-data/BlueboxTemp/202306.jpg'
p2166
g3
(g4
(I0
tS'b'
tRp2167
(I1
(I2
tg7
I00
S'\x9dK\x7f?\xaeb4;'
tbtp2168
a(S'/data/ad6813/pipe-data/BlueboxTemp/202334.jpg'
p2169
g3
(g4
(I0
tS'b'
tRp2170
(I1
(I2
tg7
I00
S'"\xd9o?\xfe6\x81='
tbtp2171
a(S'/data/ad6813/pipe-data/BlueboxTemp/202336.jpg'
p2172
g3
(g4
(I0
tS'b'
tRp2173
(I1
(I2
tg7
I00
S'\x0b\xbep?N\x1ft='
tbtp2174
a(S'/data/ad6813/pipe-data/BlueboxTemp/202337.jpg'
p2175
g3
(g4
(I0
tS'b'
tRp2176
(I1
(I2
tg7
I00
S'\x90pm?x{\x94='
tbtp2177
a(S'/data/ad6813/pipe-data/BlueboxTemp/202342.jpg'
p2178
g3
(g4
(I0
tS'b'
tRp2179
(I1
(I2
tg7
I00
S'BMd?\xf3\x95\xdd='
tbtp2180
a(S'/data/ad6813/pipe-data/BlueboxTemp/202352.jpg'
p2181
g3
(g4
(I0
tS'b'
tRp2182
(I1
(I2
tg7
I00
S'NRf?\x93m\xcd='
tbtp2183
a(S'/data/ad6813/pipe-data/BlueboxTemp/202356.jpg'
p2184
g3
(g4
(I0
tS'b'
tRp2185
(I1
(I2
tg7
I00
S'\xb6\xa7s?\x96\x84E='
tbtp2186
a(S'/data/ad6813/pipe-data/BlueboxTemp/202361.jpg'
p2187
g3
(g4
(I0
tS'b'
tRp2188
(I1
(I2
tg7
I00
S'\xbb\xc7X?\x14\xe1\x1c>'
tbtp2189
a(S'/data/ad6813/pipe-data/BlueboxTemp/202362.jpg'
p2190
g3
(g4
(I0
tS'b'
tRp2191
(I1
(I2
tg7
I00
S'\xbafG?\x1eeb>'
tbtp2192
a(S'/data/ad6813/pipe-data/BlueboxTemp/202378.jpg'
p2193
g3
(g4
(I0
tS'b'
tRp2194
(I1
(I2
tg7
I00
S'@\xd4{?"x\x85<'
tbtp2195
a(S'/data/ad6813/pipe-data/BlueboxTemp/202379.jpg'
p2196
g3
(g4
(I0
tS'b'
tRp2197
(I1
(I2
tg7
I00
S'\x00Vy?\x0e@\xd5<'
tbtp2198
a(S'/data/ad6813/pipe-data/BlueboxTemp/202388.jpg'
p2199
g3
(g4
(I0
tS'b'
tRp2200
(I1
(I2
tg7
I00
S'\xa8%v?\x86\xa5\x1d='
tbtp2201
a(S'/data/ad6813/pipe-data/BlueboxTemp/202406.jpg'
p2202
g3
(g4
(I0
tS'b'
tRp2203
(I1
(I2
tg7
I00
S']C|?\xfd(o<'
tbtp2204
a(S'/data/ad6813/pipe-data/BlueboxTemp/202408.jpg'
p2205
g3
(g4
(I0
tS'b'
tRp2206
(I1
(I2
tg7
I00
S'R\xdev?\xf4\x1a\x12='
tbtp2207
a(S'/data/ad6813/pipe-data/BlueboxTemp/202415.jpg'
p2208
g3
(g4
(I0
tS'b'
tRp2209
(I1
(I2
tg7
I00
S's\xecb?^\x9c\xe8='
tbtp2210
a(S'/data/ad6813/pipe-data/BlueboxTemp/202419.jpg'
p2211
g3
(g4
(I0
tS'b'
tRp2212
(I1
(I2
tg7
I00
S'\xfd]k?\x13\x10\xa5='
tbtp2213
a(S'/data/ad6813/pipe-data/BlueboxTemp/202423.jpg'
p2214
g3
(g4
(I0
tS'b'
tRp2215
(I1
(I2
tg7
I00
S'j\xa0d?\xb2\xfc\xda='
tbtp2216
a(S'/data/ad6813/pipe-data/BlueboxTemp/202424.jpg'
p2217
g3
(g4
(I0
tS'b'
tRp2218
(I1
(I2
tg7
I00
S'\xa7\xf3\x08?\xb0\x18\xee>'
tbtp2219
a(S'/data/ad6813/pipe-data/BlueboxTemp/202425.jpg'
p2220
g3
(g4
(I0
tS'b'
tRp2221
(I1
(I2
tg7
I00
S'\x08xv?\x86\x7f\x18='
tbtp2222
a(S'/data/ad6813/pipe-data/BlueboxTemp/202434.jpg'
p2223
g3
(g4
(I0
tS'b'
tRp2224
(I1
(I2
tg7
I00
S'\x9b\xcbu?hF#='
tbtp2225
a(S'/data/ad6813/pipe-data/BlueboxTemp/202441.jpg'
p2226
g3
(g4
(I0
tS'b'
tRp2227
(I1
(I2
tg7
I00
S'\x00\x9fx?\x13 \xec<'
tbtp2228
a(S'/data/ad6813/pipe-data/BlueboxTemp/202442.jpg'
p2229
g3
(g4
(I0
tS'b'
tRp2230
(I1
(I2
tg7
I00
S'\xed\x90k?\x9ax\xa3='
tbtp2231
a(S'/data/ad6813/pipe-data/BlueboxTemp/202445.jpg'
p2232
g3
(g4
(I0
tS'b'
tRp2233
(I1
(I2
tg7
I00
S'z\x04t?\\\xb8?='
tbtp2234
a(S'/data/ad6813/pipe-data/BlueboxTemp/202456.jpg'
p2235
g3
(g4
(I0
tS'b'
tRp2236
(I1
(I2
tg7
I00
S'c\xe8{?\x8b\xf3\x82<'
tbtp2237
a(S'/data/ad6813/pipe-data/BlueboxTemp/202464.jpg'
p2238
g3
(g4
(I0
tS'b'
tRp2239
(I1
(I2
tg7
I00
S'\xd2\xa62?Z\xb2\x9a>'
tbtp2240
a(S'/data/ad6813/pipe-data/BlueboxTemp/202470.jpg'
p2241
g3
(g4
(I0
tS'b'
tRp2242
(I1
(I2
tg7
I00
S'\x16qw?\x93\xee\x08='
tbtp2243
a(S'/data/ad6813/pipe-data/BlueboxTemp/202471.jpg'
p2244
g3
(g4
(I0
tS'b'
tRp2245
(I1
(I2
tg7
I00
S'\xa3\xffb?\xe3\x02\xe8='
tbtp2246
a(S'/data/ad6813/pipe-data/BlueboxTemp/202497.jpg'
p2247
g3
(g4
(I0
tS'b'
tRp2248
(I1
(I2
tg7
I00
S'[]t?2*:='
tbtp2249
a(S'/data/ad6813/pipe-data/BlueboxTemp/202504.jpg'
p2250
g3
(g4
(I0
tS'b'
tRp2251
(I1
(I2
tg7
I00
S".6[?G'\x13>"
tbtp2252
a(S'/data/ad6813/pipe-data/BlueboxTemp/202508.jpg'
p2253
g3
(g4
(I0
tS'b'
tRp2254
(I1
(I2
tg7
I00
S'\xe8\xc8l?\xbd\xb8\x99='
tbtp2255
a(S'/data/ad6813/pipe-data/BlueboxTemp/202514.jpg'
p2256
g3
(g4
(I0
tS'b'
tRp2257
(I1
(I2
tg7
I00
S'n\x00s?*\xf9O='
tbtp2258
a(S'/data/ad6813/pipe-data/BlueboxTemp/202518.jpg'
p2259
g3
(g4
(I0
tS'b'
tRp2260
(I1
(I2
tg7
I00
S'x\x08a?=\xbc\xf7='
tbtp2261
a(S'/data/ad6813/pipe-data/BlueboxTemp/202525.jpg'
p2262
g3
(g4
(I0
tS'b'
tRp2263
(I1
(I2
tg7
I00
S'\xd5|r?\xa62X='
tbtp2264
a(S'/data/ad6813/pipe-data/BlueboxTemp/202530.jpg'
p2265
g3
(g4
(I0
tS'b'
tRp2266
(I1
(I2
tg7
I00
S'k\x0fN?V\xc2G>'
tbtp2267
a(S'/data/ad6813/pipe-data/BlueboxTemp/202555.jpg'
p2268
g3
(g4
(I0
tS'b'
tRp2269
(I1
(I2
tg7
I00
S'\x08\xa4x?\xee~\xeb<'
tbtp2270
a(S'/data/ad6813/pipe-data/BlueboxTemp/202559.jpg'
p2271
g3
(g4
(I0
tS'b'
tRp2272
(I1
(I2
tg7
I00
S'8\x16[?!\xa7\x13>'
tbtp2273
a(S'/data/ad6813/pipe-data/BlueboxTemp/202563.jpg'
p2274
g3
(g4
(I0
tS'b'
tRp2275
(I1
(I2
tg7
I00
S';\x19^?\x16\x9b\x07>'
tbtp2276
a(S'/data/ad6813/pipe-data/BlueboxTemp/202565.jpg'
p2277
g3
(g4
(I0
tS'b'
tRp2278
(I1
(I2
tg7
I00
S'\x8c\xa0.?\xe6\xbe\xa2>'
tbtp2279
a(S'/data/ad6813/pipe-data/BlueboxTemp/202566.jpg'
p2280
g3
(g4
(I0
tS'b'
tRp2281
(I1
(I2
tg7
I00
S'\xc3\x81&?{\xfc\xb2>'
tbtp2282
a(S'/data/ad6813/pipe-data/BlueboxTemp/202568.jpg'
p2283
g3
(g4
(I0
tS'b'
tRp2284
(I1
(I2
tg7
I00
S'f\xf1q?\xa2\xe9`='
tbtp2285
a(S'/data/ad6813/pipe-data/BlueboxTemp/202569.jpg'
p2286
g3
(g4
(I0
tS'b'
tRp2287
(I1
(I2
tg7
I00
S'.NA?J\xc7z>'
tbtp2288
a(S'/data/ad6813/pipe-data/BlueboxTemp/202571.jpg'
p2289
g3
(g4
(I0
tS'b'
tRp2290
(I1
(I2
tg7
I00
S'\x9a8r?Sv\\='
tbtp2291
a(S'/data/ad6813/pipe-data/BlueboxTemp/202572.jpg'
p2292
g3
(g4
(I0
tS'b'
tRp2293
(I1
(I2
tg7
I00
S'#\xc5A?p\xebx>'
tbtp2294
a(S'/data/ad6813/pipe-data/BlueboxTemp/202574.jpg'
p2295
g3
(g4
(I0
tS'b'
tRp2296
(I1
(I2
tg7
I00
S'M1_?\xce:\x03>'
tbtp2297
a(S'/data/ad6813/pipe-data/BlueboxTemp/202580.jpg'
p2298
g3
(g4
(I0
tS'b'
tRp2299
(I1
(I2
tg7
I00
S'\x0e\xbfh?\x89\x07\xba='
tbtp2300
a(S'/data/ad6813/pipe-data/BlueboxTemp/202586.jpg'
p2301
g3
(g4
(I0
tS'b'
tRp2302
(I1
(I2
tg7
I00
S'\x85\x967?\xf7\xd2\x90>'
tbtp2303
a(S'/data/ad6813/pipe-data/BlueboxTemp/202591.jpg'
p2304
g3
(g4
(I0
tS'b'
tRp2305
(I1
(I2
tg7
I00
S'\xa0P2?\xc1^\x9b>'
tbtp2306
a(S'/data/ad6813/pipe-data/BlueboxTemp/202594.jpg'
p2307
g3
(g4
(I0
tS'b'
tRp2308
(I1
(I2
tg7
I00
S'#\x95d?\xe3V\xdb='
tbtp2309
a(S'/data/ad6813/pipe-data/BlueboxTemp/202596.jpg'
p2310
g3
(g4
(I0
tS'b'
tRp2311
(I1
(I2
tg7
I00
S'\xd50\x17?X\x9e\xd1>'
tbtp2312
a(S'/data/ad6813/pipe-data/BlueboxTemp/202600.jpg'
p2313
g3
(g4
(I0
tS'b'
tRp2314
(I1
(I2
tg7
I00
S'\xe5"e?\xda\xe8\xd6='
tbtp2315
a(S'/data/ad6813/pipe-data/BlueboxTemp/202604.jpg'
p2316
g3
(g4
(I0
tS'b'
tRp2317
(I1
(I2
tg7
I00
S'\xe6RG?e\xb4b>'
tbtp2318
a(S'/data/ad6813/pipe-data/BlueboxTemp/202609.jpg'
p2319
g3
(g4
(I0
tS'b'
tRp2320
(I1
(I2
tg7
I00
S'\x8e\xadm?\x8f\x93\x92='
tbtp2321
a(S'/data/ad6813/pipe-data/BlueboxTemp/202613.jpg'
p2322
g3
(g4
(I0
tS'b'
tRp2323
(I1
(I2
tg7
I00
S'[UO?\x92\xaaB>'
tbtp2324
a(S'/data/ad6813/pipe-data/BlueboxTemp/202618.jpg'
p2325
g3
(g4
(I0
tS'b'
tRp2326
(I1
(I2
tg7
I00
S's&a?e\xcc\xf6='
tbtp2327
a(S'/data/ad6813/pipe-data/BlueboxTemp/202620.jpg'
p2328
g3
(g4
(I0
tS'b'
tRp2329
(I1
(I2
tg7
I00
S'k\x05z?\x86R\xbf<'
tbtp2330
a(S'/data/ad6813/pipe-data/BlueboxTemp/202626.jpg'
p2331
g3
(g4
(I0
tS'b'
tRp2332
(I1
(I2
tg7
I00
S'#\x19y?\x98\xdb\xdc<'
tbtp2333
a(S'/data/ad6813/pipe-data/BlueboxTemp/202637.jpg'
p2334
g3
(g4
(I0
tS'b'
tRp2335
(I1
(I2
tg7
I00
S'\xd3\x96??W\xd2\x80>'
tbtp2336
a(S'/data/ad6813/pipe-data/BlueboxTemp/202638.jpg'
p2337
g3
(g4
(I0
tS'b'
tRp2338
(I1
(I2
tg7
I00
S':JX?\x19\xd7\x1e>'
tbtp2339
a(S'/data/ad6813/pipe-data/BlueboxTemp/202647.jpg'
p2340
g3
(g4
(I0
tS'b'
tRp2341
(I1
(I2
tg7
I00
S'\xa6\x8ew?\x85\x15\x07='
tbtp2342
a(S'/data/ad6813/pipe-data/BlueboxTemp/202651.jpg'
p2343
g3
(g4
(I0
tS'b'
tRp2344
(I1
(I2
tg7
I00
S'\xe3\x1cc?\xf3\x18\xe7='
tbtp2345
a(S'/data/ad6813/pipe-data/BlueboxTemp/202655.jpg'
p2346
g3
(g4
(I0
tS'b'
tRp2347
(I1
(I2
tg7
I00
S'\x18\xa0n?:\xff\x8a='
tbtp2348
a(S'/data/ad6813/pipe-data/BlueboxTemp/202665.jpg'
p2349
g3
(g4
(I0
tS'b'
tRp2350
(I1
(I2
tg7
I00
S'\x16xv?\xa3~\x18='
tbtp2351
a(S'/data/ad6813/pipe-data/BlueboxTemp/202673.jpg'
p2352
g3
(g4
(I0
tS'b'
tRp2353
(I1
(I2
tg7
I00
S'\xd5\xd3C?\xab\xb0p>'
tbtp2354
a(S'/data/ad6813/pipe-data/BlueboxTemp/202679.jpg'
p2355
g3
(g4
(I0
tS'b'
tRp2356
(I1
(I2
tg7
I00
S'\xa8hu?\x9cu)='
tbtp2357
a(S'/data/ad6813/pipe-data/BlueboxTemp/202687.jpg'
p2358
g3
(g4
(I0
tS'b'
tRp2359
(I1
(I2
tg7
I00
S'\xad\xa7q?6\x85e='
tbtp2360
a(S'/data/ad6813/pipe-data/BlueboxTemp/202695.jpg'
p2361
g3
(g4
(I0
tS'b'
tRp2362
(I1
(I2
tg7
I00
S'\xbeam?\r\xf2\x94='
tbtp2363
a(S'/data/ad6813/pipe-data/BlueboxTemp/202696.jpg'
p2364
g3
(g4
(I0
tS'b'
tRp2365
(I1
(I2
tg7
I00
S'~ #?\x03\xbf\xb9>'
tbtp2366
a(S'/data/ad6813/pipe-data/BlueboxTemp/202698.jpg'
p2367
g3
(g4
(I0
tS'b'
tRp2368
(I1
(I2
tg7
I00
S'B.d?\xf2\x8d\xde='
tbtp2369
a(S'/data/ad6813/pipe-data/BlueboxTemp/202699.jpg'
p2370
g3
(g4
(I0
tS'b'
tRp2371
(I1
(I2
tg7
I00
S'\x04\x03:?\xfa\xf9\x8b>'
tbtp2372
a(S'/data/ad6813/pipe-data/BlueboxTemp/202707.jpg'
p2373
g3
(g4
(I0
tS'b'
tRp2374
(I1
(I2
tg7
I00
S'\xb2\xc2F?>\xf5d>'
tbtp2375
a(S'/data/ad6813/pipe-data/BlueboxTemp/202712.jpg'
p2376
g3
(g4
(I0
tS'b'
tRp2377
(I1
(I2
tg7
I00
S'\xab\xacY?UM\x19>'
tbtp2378
a(S'/data/ad6813/pipe-data/BlueboxTemp/202718.jpg'
p2379
g3
(g4
(I0
tS'b'
tRp2380
(I1
(I2
tg7
I00
S'\xeb\x116?*\xdc\x93>'
tbtp2381
a(S'/data/ad6813/pipe-data/BlueboxTemp/202727.jpg'
p2382
g3
(g4
(I0
tS'b'
tRp2383
(I1
(I2
tg7
I00
S'\x16\x08P?\xaa\xdf?>'
tbtp2384
a(S'/data/ad6813/pipe-data/BlueboxTemp/202730.jpg'
p2385
g3
(g4
(I0
tS'b'
tRp2386
(I1
(I2
tg7
I00
S'x\x7fh?F\x04\xbc='
tbtp2387
a(S'/data/ad6813/pipe-data/BlueboxTemp/202731.jpg'
p2388
g3
(g4
(I0
tS'b'
tRp2389
(I1
(I2
tg7
I00
S'u\x80y?b\xf1\xcf<'
tbtp2390
a(S'/data/ad6813/pipe-data/BlueboxTemp/202732.jpg'
p2391
g3
(g4
(I0
tS'b'
tRp2392
(I1
(I2
tg7
I00
S'\xf5b~?j\x85\xce;'
tbtp2393
a(S'/data/ad6813/pipe-data/BlueboxTemp/202733.jpg'
p2394
g3
(g4
(I0
tS'b'
tRp2395
(I1
(I2
tg7
I00
S'm\xea{?S\xb2\x82<'
tbtp2396
a(S'/data/ad6813/pipe-data/BlueboxTemp/202744.jpg'
p2397
g3
(g4
(I0
tS'b'
tRp2398
(I1
(I2
tg7
I00
S'\xad\xdeg?\x9a\n\xc1='
tbtp2399
a(S'/data/ad6813/pipe-data/BlueboxTemp/202754.jpg'
p2400
g3
(g4
(I0
tS'b'
tRp2401
(I1
(I2
tg7
I00
S'{\x0en?+\x8c\x8f='
tbtp2402
a(S'/data/ad6813/pipe-data/BlueboxTemp/202765.jpg'
p2403
g3
(g4
(I0
tS'b'
tRp2404
(I1
(I2
tg7
I00
S'\x808o?\x00<\x86='
tbtp2405
a(S'/data/ad6813/pipe-data/BlueboxTemp/202770.jpg'
p2406
g3
(g4
(I0
tS'b'
tRp2407
(I1
(I2
tg7
I00
S'Jpr?k\xfbX='
tbtp2408
a(S'/data/ad6813/pipe-data/BlueboxTemp/202771.jpg'
p2409
g3
(g4
(I0
tS'b'
tRp2410
(I1
(I2
tg7
I00
S'&\x9ci?\xcc\x1e\xb3='
tbtp2411
a(S'/data/ad6813/pipe-data/BlueboxTemp/202772.jpg'
p2412
g3
(g4
(I0
tS'b'
tRp2413
(I1
(I2
tg7
I00
S'Z\xd8_?\x96\x9e\x00>'
tbtp2414
a(S'/data/ad6813/pipe-data/BlueboxTemp/202777.jpg'
p2415
g3
(g4
(I0
tS'b'
tRp2416
(I1
(I2
tg7
I00
S'\x16Fz?\x02=\xb7<'
tbtp2417
a(S'/data/ad6813/pipe-data/BlueboxTemp/202778.jpg'
p2418
g3
(g4
(I0
tS'b'
tRp2419
(I1
(I2
tg7
I00
S"\xc5\x86x?p'\xef<"
tbtp2420
a(S'/data/ad6813/pipe-data/BlueboxTemp/202787.jpg'
p2421
g3
(g4
(I0
tS'b'
tRp2422
(I1
(I2
tg7
I00
S'S\xc9q?\xc8jc='
tbtp2423
a(S'/data/ad6813/pipe-data/BlueboxTemp/202798.jpg'
p2424
g3
(g4
(I0
tS'b'
tRp2425
(I1
(I2
tg7
I00
S'\xda\xedC?\x9aHp>'
tbtp2426
a(S'/data/ad6813/pipe-data/BlueboxTemp/202801.jpg'
p2427
g3
(g4
(I0
tS'b'
tRp2428
(I1
(I2
tg7
I00
S'Y/\x9c>T\xe81?'
tbtp2429
a(S'/data/ad6813/pipe-data/BlueboxTemp/202802.jpg'
p2430
g3
(g4
(I0
tS'b'
tRp2431
(I1
(I2
tg7
I00
S'\xc0oe?\x05\x82\xd4='
tbtp2432
a(S'/data/ad6813/pipe-data/BlueboxTemp/202806.jpg'
p2433
g3
(g4
(I0
tS'b'
tRp2434
(I1
(I2
tg7
I00
S'\x08\x92r?\x82\xdfV='
tbtp2435
a(S'/data/ad6813/pipe-data/BlueboxTemp/202809.jpg'
p2436
g3
(g4
(I0
tS'b'
tRp2437
(I1
(I2
tg7
I00
S'\x85Od?\xe2\x83\xdd='
tbtp2438
a(S'/data/ad6813/pipe-data/BlueboxTemp/202811.jpg'
p2439
g3
(g4
(I0
tS'b'
tRp2440
(I1
(I2
tg7
I00
S'\x14\xfc=?\xd7\x07\x84>'
tbtp2441
a(S'/data/ad6813/pipe-data/BlueboxTemp/202813.jpg'
p2442
g3
(g4
(I0
tS'b'
tRp2443
(I1
(I2
tg7
I00
S'\x8e\xdd\x06?\xe5D\xf2>'
tbtp2444
a(S'/data/ad6813/pipe-data/BlueboxTemp/202821.jpg'
p2445
g3
(g4
(I0
tS'b'
tRp2446
(I1
(I2
tg7
I00
S'N\x96Y?\xc6\xa6\x19>'
tbtp2447
a(S'/data/ad6813/pipe-data/BlueboxTemp/202822.jpg'
p2448
g3
(g4
(I0
tS'b'
tRp2449
(I1
(I2
tg7
I00
S"\x12''?\xdd\xb1\xb1>"
tbtp2450
a(S'/data/ad6813/pipe-data/BlueboxTemp/202829.jpg'
p2451
g3
(g4
(I0
tS'b'
tRp2452
(I1
(I2
tg7
I00
S'N,\x15?c\xa7\xd5>'
tbtp2453
a(S'/data/ad6813/pipe-data/BlueboxTemp/202832.jpg'
p2454
g3
(g4
(I0
tS'b'
tRp2455
(I1
(I2
tg7
I00
S'\x1dz\x0c?\xc8\x0b\xe7>'
tbtp2456
a(S'/data/ad6813/pipe-data/BlueboxTemp/202833.jpg'
p2457
g3
(g4
(I0
tS'b'
tRp2458
(I1
(I2
tg7
I00
S'\x96S[?\xa6\xb1\x12>'
tbtp2459
a(S'/data/ad6813/pipe-data/BlueboxTemp/202834.jpg'
p2460
g3
(g4
(I0
tS'b'
tRp2461
(I1
(I2
tg7
I00
S'Vr2?R\x1b\x9b>'
tbtp2462
a(S'/data/ad6813/pipe-data/BlueboxTemp/202844.jpg'
p2463
g3
(g4
(I0
tS'b'
tRp2464
(I1
(I2
tg7
I00
S'\xe5\x96m?\xe3H\x93='
tbtp2465
a(S'/data/ad6813/pipe-data/BlueboxTemp/202848.jpg'
p2466
g3
(g4
(I0
tS'b'
tRp2467
(I1
(I2
tg7
I00
S'\xdb\x80e?2\xf9\xd3='
tbtp2468
a(S'/data/ad6813/pipe-data/BlueboxTemp/202852.jpg'
p2469
g3
(g4
(I0
tS'b'
tRp2470
(I1
(I2
tg7
I00
S'\xae\xc7q?>\x85c='
tbtp2471
a(S'/data/ad6813/pipe-data/BlueboxTemp/202853.jpg'
p2472
g3
(g4
(I0
tS'b'
tRp2473
(I1
(I2
tg7
I00
S'\xb63a?Eb\xf6='
tbtp2474
a(S'/data/ad6813/pipe-data/BlueboxTemp/202856.jpg'
p2475
g3
(g4
(I0
tS'b'
tRp2476
(I1
(I2
tg7
I00
S'\xfb=k?!\x10\xa6='
tbtp2477
a(S'/data/ad6813/pipe-data/BlueboxTemp/202859.jpg'
p2478
g3
(g4
(I0
tS'b'
tRp2479
(I1
(I2
tg7
I00
S'\x86\x89T?\xe4\xd9->'
tbtp2480
a(S'/data/ad6813/pipe-data/BlueboxTemp/202894.jpg'
p2481
g3
(g4
(I0
tS'b'
tRp2482
(I1
(I2
tg7
I00
S'M\xf9j?\xa25\xa8='
tbtp2483
a(S'/data/ad6813/pipe-data/BlueboxTemp/202905.jpg'
p2484
g3
(g4
(I0
tS'b'
tRp2485
(I1
(I2
tg7
I00
S'RxN?\xc0\x1eF>'
tbtp2486
a(S'/data/ad6813/pipe-data/BlueboxTemp/202910.jpg'
p2487
g3
(g4
(I0
tS'b'
tRp2488
(I1
(I2
tg7
I00
S'Bb\xb5>\xdeN%?'
tbtp2489
a(S'/data/ad6813/pipe-data/BlueboxTemp/202914.jpg'
p2490
g3
(g4
(I0
tS'b'
tRp2491
(I1
(I2
tg7
I00
S'X\xbb}?\xee)\x11<'
tbtp2492
a(S'/data/ad6813/pipe-data/BlueboxTemp/202917.jpg'
p2493
g3
(g4
(I0
tS'b'
tRp2494
(I1
(I2
tg7
I00
S'\xc8\x84k?\xb7\xd9\xa3='
tbtp2495
a(S'/data/ad6813/pipe-data/BlueboxTemp/202925.jpg'
p2496
g3
(g4
(I0
tS'b'
tRp2497
(I1
(I2
tg7
I00
S'\x10yl?w7\x9c='
tbtp2498
a(S'/data/ad6813/pipe-data/BlueboxTemp/202951.jpg'
p2499
g3
(g4
(I0
tS'b'
tRp2500
(I1
(I2
tg7
I00
S'\xad\xde}?\x9eT\x08<'
tbtp2501
a(S'/data/ad6813/pipe-data/BlueboxTemp/202957.jpg'
p2502
g3
(g4
(I0
tS'b'
tRp2503
(I1
(I2
tg7
I00
S'\x92Qx?\xb6\xcd\xf5<'
tbtp2504
a(S'/data/ad6813/pipe-data/BlueboxTemp/202962.jpg'
p2505
g3
(g4
(I0
tS'b'
tRp2506
(I1
(I2
tg7
I00
S'\xea\xcd\x14?+d\xd6>'
tbtp2507
a(S'/data/ad6813/pipe-data/BlueboxTemp/202968.jpg'
p2508
g3
(g4
(I0
tS'b'
tRp2509
(I1
(I2
tg7
I00
S'\xc8\xe0i?\xbe\xf9\xb0='
tbtp2510
a(S'/data/ad6813/pipe-data/BlueboxTemp/202971.jpg'
p2511
g3
(g4
(I0
tS'b'
tRp2512
(I1
(I2
tg7
I00
S'\xa6\xa8X?g]\x1d>'
tbtp2513
a(S'/data/ad6813/pipe-data/BlueboxTemp/202979.jpg'
p2514
g3
(g4
(I0
tS'b'
tRp2515
(I1
(I2
tg7
I00
S'\x8a\x85s?G\xa7G='
tbtp2516
a(S'/data/ad6813/pipe-data/BlueboxTemp/202996.jpg'
p2517
g3
(g4
(I0
tS'b'
tRp2518
(I1
(I2
tg7
I00
S']9v?$j\x1c='
tbtp2519
a(S'/data/ad6813/pipe-data/BlueboxTemp/203005.jpg'
p2520
g3
(g4
(I0
tS'b'
tRp2521
(I1
(I2
tg7
I00
S'k\xe2i?\xae\xec\xb0='
tbtp2522
a(S'/data/ad6813/pipe-data/BlueboxTemp/203025.jpg'
p2523
g3
(g4
(I0
tS'b'
tRp2524
(I1
(I2
tg7
I00
S'\x02Z@?\xfa\x97~>'
tbtp2525
a(S'/data/ad6813/pipe-data/BlueboxTemp/203033.jpg'
p2526
g3
(g4
(I0
tS'b'
tRp2527
(I1
(I2
tg7
I00
S'v\xafv?\xa2\x08\x15='
tbtp2528
a(S'/data/ad6813/pipe-data/BlueboxTemp/203039.jpg'
p2529
g3
(g4
(I0
tS'b'
tRp2530
(I1
(I2
tg7
I00
S'f\x7ff>%`F?'
tbtp2531
a(S'/data/ad6813/pipe-data/BlueboxTemp/203051.jpg'
p2532
g3
(g4
(I0
tS'b'
tRp2533
(I1
(I2
tg7
I00
S'\xde\xa9a?\x0e\xb1\xf2='
tbtp2534
a(S'/data/ad6813/pipe-data/BlueboxTemp/203067.jpg'
p2535
g3
(g4
(I0
tS'b'
tRp2536
(I1
(I2
tg7
I00
S"\x1b\x1bk?\x1f'\xa7="
tbtp2537
a(S'/data/ad6813/pipe-data/BlueboxTemp/203068.jpg'
p2538
g3
(g4
(I0
tS'b'
tRp2539
(I1
(I2
tg7
I00
S'~\xe8q?.xa='
tbtp2540
a(S'/data/ad6813/pipe-data/BlueboxTemp/203069.jpg'
p2541
g3
(g4
(I0
tS'b'
tRp2542
(I1
(I2
tg7
I00
S'e\t`?\xe5\xb4\xff='
tbtp2543
a(S'/data/ad6813/pipe-data/BlueboxTemp/203070.jpg'
p2544
g3
(g4
(I0
tS'b'
tRp2545
(I1
(I2
tg7
I00
S'\xd6io?F\xb1\x84='
tbtp2546
a(S'/data/ad6813/pipe-data/BlueboxTemp/203071.jpg'
p2547
g3
(g4
(I0
tS'b'
tRp2548
(I1
(I2
tg7
I00
S'\xbd\x9eU?\x0f\x85)>'
tbtp2549
a(S'/data/ad6813/pipe-data/BlueboxTemp/203072.jpg'
p2550
g3
(g4
(I0
tS'b'
tRp2551
(I1
(I2
tg7
I00
S'\x8cR\x17?\xe8Z\xd1>'
tbtp2552
a(S'/data/ad6813/pipe-data/BlueboxTemp/203075.jpg'
p2553
g3
(g4
(I0
tS'b'
tRp2554
(I1
(I2
tg7
I00
S'\xad\xaf\x17?\xa6\xa0\xd0>'
tbtp2555
a(S'/data/ad6813/pipe-data/BlueboxTemp/203080.jpg'
p2556
g3
(g4
(I0
tS'b'
tRp2557
(I1
(I2
tg7
I00
S'\x1d\x8bT?\x8f\xd3->'
tbtp2558
a(S'/data/ad6813/pipe-data/BlueboxTemp/203083.jpg'
p2559
g3
(g4
(I0
tS'b'
tRp2560
(I1
(I2
tg7
I00
S'm\x9c\x11?&\xc7\xdc>'
tbtp2561
a(S'/data/ad6813/pipe-data/BlueboxTemp/203085.jpg'
p2562
g3
(g4
(I0
tS'b'
tRp2563
(I1
(I2
tg7
I00
S'\xddzZ?\x8c\x14\x16>'
tbtp2564
a(S'/data/ad6813/pipe-data/BlueboxTemp/203095.jpg'
p2565
g3
(g4
(I0
tS'b'
tRp2566
(I1
(I2
tg7
I00
S'\xed\xff^?P\x00\x04>'
tbtp2567
a(S'/data/ad6813/pipe-data/BlueboxTemp/203101.jpg'
p2568
g3
(g4
(I0
tS'b'
tRp2569
(I1
(I2
tg7
I00
S'\x9e\xf8O?\x86\x1d@>'
tbtp2570
a(S'/data/ad6813/pipe-data/BlueboxTemp/203102.jpg'
p2571
g3
(g4
(I0
tS'b'
tRp2572
(I1
(I2
tg7
I00
S'\x87P\x12?\xf2^\xdb>'
tbtp2573
a(S'/data/ad6813/pipe-data/BlueboxTemp/203104.jpg'
p2574
g3
(g4
(I0
tS'b'
tRp2575
(I1
(I2
tg7
I00
S'm\xce<?&c\x86>'
tbtp2576
a(S'/data/ad6813/pipe-data/BlueboxTemp/203105.jpg'
p2577
g3
(g4
(I0
tS'b'
tRp2578
(I1
(I2
tg7
I00
S'\x86^Z?\xe9\x85\x16>'
tbtp2579
a(S'/data/ad6813/pipe-data/BlueboxTemp/203107.jpg'
p2580
g3
(g4
(I0
tS'b'
tRp2581
(I1
(I2
tg7
I00
S'-\xa2??\xa5\xbb\x80>'
tbtp2582
a(S'/data/ad6813/pipe-data/BlueboxTemp/203108.jpg'
p2583
g3
(g4
(I0
tS'b'
tRp2584
(I1
(I2
tg7
I00
S'\x03\x19"?\xfa\xcd\xbb>'
tbtp2585
a(S'/data/ad6813/pipe-data/BlueboxTemp/203110.jpg'
p2586
g3
(g4
(I0
tS'b'
tRp2587
(I1
(I2
tg7
I00
S'\xf2\x19\xd8>\x07\xf3\x13?'
tbtp2588
a(S'/data/ad6813/pipe-data/BlueboxTemp/203116.jpg'
p2589
g3
(g4
(I0
tS'b'
tRp2590
(I1
(I2
tg7
I00
S'\xfd*4?\t\xaa\x97>'
tbtp2591
a(S'/data/ad6813/pipe-data/BlueboxTemp/203119.jpg'
p2592
g3
(g4
(I0
tS'b'
tRp2593
(I1
(I2
tg7
I00
S'\x15\x0f\xda=\x1e\xbed?'
tbtp2594
a(S'/data/ad6813/pipe-data/BlueboxTemp/203120.jpg'
p2595
g3
(g4
(I0
tS'b'
tRp2596
(I1
(I2
tg7
I00
S'E{+?w\t\xa9>'
tbtp2597
a(S'/data/ad6813/pipe-data/BlueboxTemp/203125.jpg'
p2598
g3
(g4
(I0
tS'b'
tRp2599
(I1
(I2
tg7
I00
S'\xba\x9fN?\x18\x81E>'
tbtp2600
a(S'/data/ad6813/pipe-data/BlueboxTemp/203131.jpg'
p2601
g3
(g4
(I0
tS'b'
tRp2602
(I1
(I2
tg7
I00
S'\xa3Iy?r\xcb\xd6<'
tbtp2603
a(S'/data/ad6813/pipe-data/BlueboxTemp/203134.jpg'
p2604
g3
(g4
(I0
tS'b'
tRp2605
(I1
(I2
tg7
I00
S'\xd5\x11P?\xab\xb8?>'
tbtp2606
a(S'/data/ad6813/pipe-data/BlueboxTemp/203137.jpg'
p2607
g3
(g4
(I0
tS'b'
tRp2608
(I1
(I2
tg7
I00
S'\xf2\x9cH>\xc3\xd8M?'
tbtp2609
a(S'/data/ad6813/pipe-data/BlueboxTemp/203144.jpg'
p2610
g3
(g4
(I0
tS'b'
tRp2611
(I1
(I2
tg7
I00
S'h\x10D?b\xbeo>'
tbtp2612
a(S'/data/ad6813/pipe-data/BlueboxTemp/203147.jpg'
p2613
g3
(g4
(I0
tS'b'
tRp2614
(I1
(I2
tg7
I00
S'\xae\xd0^?H\xbd\x04>'
tbtp2615
a(S'/data/ad6813/pipe-data/BlueboxTemp/203149.jpg'
p2616
g3
(g4
(I0
tS'b'
tRp2617
(I1
(I2
tg7
I00
S'\x14\xac\x19?\xd8\xa7\xcc>'
tbtp2618
a(S'/data/ad6813/pipe-data/BlueboxTemp/203150.jpg'
p2619
g3
(g4
(I0
tS'b'
tRp2620
(I1
(I2
tg7
I00
S'ZmV?\x96J&>'
tbtp2621
a(S'/data/ad6813/pipe-data/BlueboxTemp/203153.jpg'
p2622
g3
(g4
(I0
tS'b'
tRp2623
(I1
(I2
tg7
I00
S'\xc5\tZ?\xea\xd8\x17>'
tbtp2624
a(S'/data/ad6813/pipe-data/BlueboxTemp/203154.jpg'
p2625
g3
(g4
(I0
tS'b'
tRp2626
(I1
(I2
tg7
I00
S'r\x9eZ?6\x86\x15>'
tbtp2627
a(S'/data/ad6813/pipe-data/BlueboxTemp/203155.jpg'
p2628
g3
(g4
(I0
tS'b'
tRp2629
(I1
(I2
tg7
I00
S'\xa4\nD?k\xd5o>'
tbtp2630
a(S'/data/ad6813/pipe-data/BlueboxTemp/203157.jpg'
p2631
g3
(g4
(I0
tS'b'
tRp2632
(I1
(I2
tg7
I00
S'{\xc2\x04?\x08{\xf6>'
tbtp2633
a(S'/data/ad6813/pipe-data/BlueboxTemp/203159.jpg'
p2634
g3
(g4
(I0
tS'b'
tRp2635
(I1
(I2
tg7
I00
S'J(`?\xb2\xbd\xfe='
tbtp2636
a(S'/data/ad6813/pipe-data/BlueboxTemp/203163.jpg'
p2637
g3
(g4
(I0
tS'b'
tRp2638
(I1
(I2
tg7
I00
S'\x8b\xddU?\xd0\x89(>'
tbtp2639
a(S'/data/ad6813/pipe-data/BlueboxTemp/203166.jpg'
p2640
g3
(g4
(I0
tS'b'
tRp2641
(I1
(I2
tg7
I00
S'\x14t\n?\xd8\x17\xeb>'
tbtp2642
a(S'/data/ad6813/pipe-data/BlueboxTemp/203173.jpg'
p2643
g3
(g4
(I0
tS'b'
tRp2644
(I1
(I2
tg7
I00
S'N\x8bi?\x91\xa5\xb3='
tbtp2645
a(S'/data/ad6813/pipe-data/BlueboxTemp/203179.jpg'
p2646
g3
(g4
(I0
tS'b'
tRp2647
(I1
(I2
tg7
I00
S'3\xfdO?2\x0b@>'
tbtp2648
a(S'/data/ad6813/pipe-data/BlueboxTemp/203190.jpg'
p2649
g3
(g4
(I0
tS'b'
tRp2650
(I1
(I2
tg7
I00
S's\xc5e?b\xd4\xd1='
tbtp2651
a(S'/data/ad6813/pipe-data/BlueboxTemp/203191.jpg'
p2652
g3
(g4
(I0
tS'b'
tRp2653
(I1
(I2
tg7
I00
S'\xdb\xc6W?\x95\xe4 >'
tbtp2654
a(S'/data/ad6813/pipe-data/BlueboxTemp/203199.jpg'
p2655
g3
(g4
(I0
tS'b'
tRp2656
(I1
(I2
tg7
I00
S'*\xb1^?Z;\x05>'
tbtp2657
a(S'/data/ad6813/pipe-data/BlueboxTemp/203206.jpg'
p2658
g3
(g4
(I0
tS'b'
tRp2659
(I1
(I2
tg7
I00
S'cWw?\xbe\x89\n='
tbtp2660
a(S'/data/ad6813/pipe-data/BlueboxTemp/203207.jpg'
p2661
g3
(g4
(I0
tS'b'
tRp2662
(I1
(I2
tg7
I00
S'\xa3\xdfo?\xe2\x02\x81='
tbtp2663
a(S'/data/ad6813/pipe-data/BlueboxTemp/203210.jpg'
p2664
g3
(g4
(I0
tS'b'
tRp2665
(I1
(I2
tg7
I00
S'\xd6\x87R?\xa7\xe05>'
tbtp2666
a(S'/data/ad6813/pipe-data/BlueboxTemp/203223.jpg'
p2667
g3
(g4
(I0
tS'b'
tRp2668
(I1
(I2
tg7
I00
S'b\xdan?\xef,\x89='
tbtp2669
a(S'/data/ad6813/pipe-data/BlueboxTemp/203231.jpg'
p2670
g3
(g4
(I0
tS'b'
tRp2671
(I1
(I2
tg7
I00
S'\xee\xce7?%b\x90>'
tbtp2672
a(S'/data/ad6813/pipe-data/BlueboxTemp/203236.jpg'
p2673
g3
(g4
(I0
tS'b'
tRp2674
(I1
(I2
tg7
I00
S'\x93\xa2l>[\xd7D?'
tbtp2675
a(S'/data/ad6813/pipe-data/BlueboxTemp/203238.jpg'
p2676
g3
(g4
(I0
tS'b'
tRp2677
(I1
(I2
tg7
I00
S'\x05\xf4[?\xf0/\x10>'
tbtp2678
a(S'/data/ad6813/pipe-data/BlueboxTemp/203240.jpg'
p2679
g3
(g4
(I0
tS'b'
tRp2680
(I1
(I2
tg7
I00
S'[\x9dG?\x95\x8aa>'
tbtp2681
a(S'/data/ad6813/pipe-data/BlueboxTemp/203241.jpg'
p2682
g3
(g4
(I0
tS'b'
tRp2683
(I1
(I2
tg7
I00
S'\xd8\x031?N\xf8\x9d>'
tbtp2684
a(S'/data/ad6813/pipe-data/BlueboxTemp/203242.jpg'
p2685
g3
(g4
(I0
tS'b'
tRp2686
(I1
(I2
tg7
I00
S'\xd0\n/?a\xea\xa1>'
tbtp2687
a(S'/data/ad6813/pipe-data/BlueboxTemp/203247.jpg'
p2688
g3
(g4
(I0
tS'b'
tRp2689
(I1
(I2
tg7
I00
S'\x16\xc1x>\xba\xcfA?'
tbtp2690
a(S'/data/ad6813/pipe-data/BlueboxTemp/203251.jpg'
p2691
g3
(g4
(I0
tS'b'
tRp2692
(I1
(I2
tg7
I00
S'6\xef5?\x92!\x94>'
tbtp2693
a(S'/data/ad6813/pipe-data/BlueboxTemp/203252.jpg'
p2694
g3
(g4
(I0
tS'b'
tRp2695
(I1
(I2
tg7
I00
S'\x02|9>\x00\xa1Q?'
tbtp2696
a(S'/data/ad6813/pipe-data/BlueboxTemp/203256.jpg'
p2697
g3
(g4
(I0
tS'b'
tRp2698
(I1
(I2
tg7
I00
S'u\x9bk?\\$\xa3='
tbtp2699
a(S'/data/ad6813/pipe-data/BlueboxTemp/203259.jpg'
p2700
g3
(g4
(I0
tS'b'
tRp2701
(I1
(I2
tg7
I00
S'\xf3\x17x?\x8d\x01\xfd<'
tbtp2702
a(S'/data/ad6813/pipe-data/BlueboxTemp/203266.jpg'
p2703
g3
(g4
(I0
tS'b'
tRp2704
(I1
(I2
tg7
I00
S"\x86\xe9\xb0>=\x8b'?"
tbtp2705
a(S'/data/ad6813/pipe-data/BlueboxTemp/203275.jpg'
p2706
g3
(g4
(I0
tS'b'
tRp2707
(I1
(I2
tg7
I00
S'\xe5Sm?\xe1`\x95='
tbtp2708
a(S'/data/ad6813/pipe-data/BlueboxTemp/203281.jpg'
p2709
g3
(g4
(I0
tS'b'
tRp2710
(I1
(I2
tg7
I00
S'\r\xe8h?\x9a\xbf\xb8='
tbtp2711
a(S'/data/ad6813/pipe-data/BlueboxTemp/203287.jpg'
p2712
g3
(g4
(I0
tS'b'
tRp2713
(I1
(I2
tg7
I00
S'\x90WZ?\xc4\xa1\x16>'
tbtp2714
a(S'/data/ad6813/pipe-data/BlueboxTemp/203289.jpg'
p2715
g3
(g4
(I0
tS'b'
tRp2716
(I1
(I2
tg7
I00
S'G\x86I?\xe6\xe6Y>'
tbtp2717
a(S'/data/ad6813/pipe-data/BlueboxTemp/203290.jpg'
p2718
g3
(g4
(I0
tS'b'
tRp2719
(I1
(I2
tg7
I00
S'&\x0e]?f\xc7\x0b>'
tbtp2720
a(S'/data/ad6813/pipe-data/BlueboxTemp/203300.jpg'
p2721
g3
(g4
(I0
tS'b'
tRp2722
(I1
(I2
tg7
I00
S'\xa5\x9fc?\xd0\x02\xe3='
tbtp2723
a(S'/data/ad6813/pipe-data/BlueboxTemp/203306.jpg'
p2724
g3
(g4
(I0
tS'b'
tRp2725
(I1
(I2
tg7
I00
S'mzE?P\x16j>'
tbtp2726
a(S'/data/ad6813/pipe-data/BlueboxTemp/203313.jpg'
p2727
g3
(g4
(I0
tS'b'
tRp2728
(I1
(I2
tg7
I00
S'\xbf$\xac>\x9f\xed)?'
tbtp2729
a(S'/data/ad6813/pipe-data/BlueboxTemp/203314.jpg'
p2730
g3
(g4
(I0
tS'b'
tRp2731
(I1
(I2
tg7
I00
S'S\xa3]?\xb8r\t>'
tbtp2732
a(S'/data/ad6813/pipe-data/BlueboxTemp/203341.jpg'
p2733
g3
(g4
(I0
tS'b'
tRp2734
(I1
(I2
tg7
I00
S'z\xc3r?k\xc8S='
tbtp2735
a(S'/data/ad6813/pipe-data/BlueboxTemp/203343.jpg'
p2736
g3
(g4
(I0
tS'b'
tRp2737
(I1
(I2
tg7
I00
S'\x90\xf5p?\x0b\xa7p='
tbtp2738
a(S'/data/ad6813/pipe-data/BlueboxTemp/203345.jpg'
p2739
g3
(g4
(I0
tS'b'
tRp2740
(I1
(I2
tg7
I00
S'\x8b8c?\xaa;\xe6='
tbtp2741
a(S'/data/ad6813/pipe-data/BlueboxTemp/203347.jpg'
p2742
g3
(g4
(I0
tS'b'
tRp2743
(I1
(I2
tg7
I00
S'\x86\xf6c?\xcbK\xe0='
tbtp2744
a(S'/data/ad6813/pipe-data/BlueboxTemp/203367.jpg'
p2745
g3
(g4
(I0
tS'b'
tRp2746
(I1
(I2
tg7
I00
S'\xcd\xb3u?D\xc3$='
tbtp2747
a(S'/data/ad6813/pipe-data/BlueboxTemp/203380.jpg'
p2748
g3
(g4
(I0
tS'b'
tRp2749
(I1
(I2
tg7
I00
S'\xc0\xb2u?\xf0\xd3$='
tbtp2750
a(S'/data/ad6813/pipe-data/BlueboxTemp/203382.jpg'
p2751
g3
(g4
(I0
tS'b'
tRp2752
(I1
(I2
tg7
I00
S'\x1d\xcdf?/\x97\xc9='
tbtp2753
a(S'/data/ad6813/pipe-data/BlueboxTemp/203392.jpg'
p2754
g3
(g4
(I0
tS'b'
tRp2755
(I1
(I2
tg7
I00
S'\x82W|?\xa0\x1fj<'
tbtp2756
a(S'/data/ad6813/pipe-data/BlueboxTemp/203399.jpg'
p2757
g3
(g4
(I0
tS'b'
tRp2758
(I1
(I2
tg7
I00
S'Fwx?B\x17\xf1<'
tbtp2759
a(S'/data/ad6813/pipe-data/BlueboxTemp/203415.jpg'
p2760
g3
(g4
(I0
tS'b'
tRp2761
(I1
(I2
tg7
I00
S'e\xb2y?K\xb3\xc9<'
tbtp2762
a(S'/data/ad6813/pipe-data/BlueboxTemp/203421.jpg'
p2763
g3
(g4
(I0
tS'b'
tRp2764
(I1
(I2
tg7
I00
S'b\x95v?\xe9\xa9\x16='
tbtp2765
a(S'/data/ad6813/pipe-data/BlueboxTemp/203426.jpg'
p2766
g3
(g4
(I0
tS'b'
tRp2767
(I1
(I2
tg7
I00
S'\xc0\xb0>?\x7f\x9e\x82>'
tbtp2768
a(S'/data/ad6813/pipe-data/BlueboxTemp/203432.jpg'
p2769
g3
(g4
(I0
tS'b'
tRp2770
(I1
(I2
tg7
I00
S'~SZ?\x06\xb2\x16>'
tbtp2771
a(S'/data/ad6813/pipe-data/BlueboxTemp/203436.jpg'
p2772
g3
(g4
(I0
tS'b'
tRp2773
(I1
(I2
tg7
I00
S'\x83\x86r?\xcd\x97W='
tbtp2774
a(S'/data/ad6813/pipe-data/BlueboxTemp/203441.jpg'
p2775
g3
(g4
(I0
tS'b'
tRp2776
(I1
(I2
tg7
I00
S'e\x1b{?r\x93\x9c<'
tbtp2777
a(S'/data/ad6813/pipe-data/BlueboxTemp/203442.jpg'
p2778
g3
(g4
(I0
tS'b'
tRp2779
(I1
(I2
tg7
I00
S'z\xa4o?-\xdc\x82='
tbtp2780
a(S'/data/ad6813/pipe-data/BlueboxTemp/203447.jpg'
p2781
g3
(g4
(I0
tS'b'
tRp2782
(I1
(I2
tg7
I00
S'\xfa\xd5o??P\x81='
tbtp2783
a(S'/data/ad6813/pipe-data/BlueboxTemp/203449.jpg'
p2784
g3
(g4
(I0
tS'b'
tRp2785
(I1
(I2
tg7
I00
S'\x02\xc7\x1f?\xfeq\xc0>'
tbtp2786
a(S'/data/ad6813/pipe-data/BlueboxTemp/203455.jpg'
p2787
g3
(g4
(I0
tS'b'
tRp2788
(I1
(I2
tg7
I00
S'3\x91y?\xbb\xd9\xcd<'
tbtp2789
a(S'/data/ad6813/pipe-data/BlueboxTemp/203461.jpg'
p2790
g3
(g4
(I0
tS'b'
tRp2791
(I1
(I2
tg7
I00
S's\xf2n?[l\x88='
tbtp2792
a(S'/data/ad6813/pipe-data/BlueboxTemp/203472.jpg'
p2793
g3
(g4
(I0
tS'b'
tRp2794
(I1
(I2
tg7
I00
S'^\x0fo?\x0e\x85\x87='
tbtp2795
a(S'/data/ad6813/pipe-data/BlueboxTemp/203473.jpg'
p2796
g3
(g4
(I0
tS'b'
tRp2797
(I1
(I2
tg7
I00
S'\xe2\xe4i?\xf9\xd8\xb0='
tbtp2798
a(S'/data/ad6813/pipe-data/BlueboxTemp/203480.jpg'
p2799
g3
(g4
(I0
tS'b'
tRp2800
(I1
(I2
tg7
I00
S'}\xd8!?\x06O\xbc>'
tbtp2801
a(S'/data/ad6813/pipe-data/BlueboxTemp/203481.jpg'
p2802
g3
(g4
(I0
tS'b'
tRp2803
(I1
(I2
tg7
I00
S'\nD\xa2>\xfb\xdd.?'
tbtp2804
a(S'/data/ad6813/pipe-data/BlueboxTemp/203484.jpg'
p2805
g3
(g4
(I0
tS'b'
tRp2806
(I1
(I2
tg7
I00
S'\x8b\x91D?\xd0\xb9m>'
tbtp2807
a(S'/data/ad6813/pipe-data/BlueboxTemp/203495.jpg'
p2808
g3
(g4
(I0
tS'b'
tRp2809
(I1
(I2
tg7
I00
S'\x96@{?$\xed\x97<'
tbtp2810
a(S'/data/ad6813/pipe-data/BlueboxTemp/203497.jpg'
p2811
g3
(g4
(I0
tS'b'
tRp2812
(I1
(I2
tg7
I00
S'\x8d\x1f{?n\x0e\x9c<'
tbtp2813
a(S'/data/ad6813/pipe-data/BlueboxTemp/203516.jpg'
p2814
g3
(g4
(I0
tS'b'
tRp2815
(I1
(I2
tg7
I00
S'N[o?\x8f%\x85='
tbtp2816
a(S'/data/ad6813/pipe-data/BlueboxTemp/203517.jpg'
p2817
g3
(g4
(I0
tS'b'
tRp2818
(I1
(I2
tg7
I00
S'*\xf7_?X#\x00>'
tbtp2819
a(S'/data/ad6813/pipe-data/BlueboxTemp/42875.jpg'
p2820
g3
(g4
(I0
tS'b'
tRp2821
(I1
(I2
tg7
I00
S'\xe3\x15}=\xa2.p?'
tbtp2822
a(S'/data/ad6813/pipe-data/BlueboxTemp/42951.jpg'
p2823
g3
(g4
(I0
tS'b'
tRp2824
(I1
(I2
tg7
I00
S'{\xee\xd8=2\xe2d?'
tbtp2825
a(S'/data/ad6813/pipe-data/BlueboxTemp/65070.jpg'
p2826
g3
(g4
(I0
tS'b'
tRp2827
(I1
(I2
tg7
I00
S'\x96\xc1\xf6>6\x9f\x04?'
tbtp2828
a(S'/data/ad6813/pipe-data/BlueboxTemp/65076.jpg'
p2829
g3
(g4
(I0
tS'b'
tRp2830
(I1
(I2
tg7
I00
S'\xdan{>I$A?'
tbtp2831
a(S'/data/ad6813/pipe-data/BlueboxTemp/65104.jpg'
p2832
g3
(g4
(I0
tS'b'
tRp2833
(I1
(I2
tg7
I00
S'\xa2I\xed>2[\t?'
tbtp2834
a(S'/data/ad6813/pipe-data/BlueboxTemp/67037.jpg'
p2835
g3
(g4
(I0
tS'b'
tRp2836
(I1
(I2
tg7
I00
S'\x8edb?\x8b\xdb\xec='
tbtp2837
a(S'/data/ad6813/pipe-data/BlueboxTemp/71396.jpg'
p2838
g3
(g4
(I0
tS'b'
tRp2839
(I1
(I2
tg7
I00
S'\xf3\xad=>\x83\x94P?'
tbtp2840
a(S'/data/ad6813/pipe-data/BlueboxTemp/71398.jpg'
p2841
g3
(g4
(I0
tS'b'
tRp2842
(I1
(I2
tg7
I00
S'1\xa7\x84>g\xac=?'
tbtp2843
a(S'/data/ad6813/pipe-data/BlueboxTemp/79024.jpg'
p2844
g3
(g4
(I0
tS'b'
tRp2845
(I1
(I2
tg7
I00
S'BkC?\xf0Rr>'
tbtp2846
a(S'/data/ad6813/pipe-data/BlueboxTemp/79025.jpg'
p2847
g3
(g4
(I0
tS'b'
tRp2848
(I1
(I2
tg7
I00
S'\x95\x1b\xf2<#ox?'
tbtp2849
a(S'/data/ad6813/pipe-data/BlueboxTemp/80117.jpg'
p2850
g3
(g4
(I0
tS'b'
tRp2851
(I1
(I2
tg7
I00
S'\x132\xa8>\xf6\xe6+?'
tbtp2852
a(S'/data/ad6813/pipe-data/BlueboxTemp/81736.jpg'
p2853
g3
(g4
(I0
tS'b'
tRp2854
(I1
(I2
tg7
I00
S'*\xac]?_O\t>'
tbtp2855
a(S'/data/ad6813/pipe-data/BlueboxTemp/81737.jpg'
p2856
g3
(g4
(I0
tS'b'
tRp2857
(I1
(I2
tg7
I00
S'\xbd\xc9k?*\xb2\xa1='
tbtp2858
a(S'/data/ad6813/pipe-data/BlueboxTemp/82114.jpg'
p2859
g3
(g4
(I0
tS'b'
tRp2860
(I1
(I2
tg7
I00
S'\x8e2~?v\xb9\xe6;'
tbtp2861
a(S'/data/ad6813/pipe-data/BlueboxTemp/82310.jpg'
p2862
g3
(g4
(I0
tS'b'
tRp2863
(I1
(I2
tg7
I00
S'-\xa9I=mes?'
tbtp2864
a(S'/data/ad6813/pipe-data/BlueboxTemp/91278.jpg'
p2865
g3
(g4
(I0
tS'b'
tRp2866
(I1
(I2
tg7
I00
S'\x9euR?\x84)6>'
tbtp2867
a(S'/data/ad6813/pipe-data/BlueboxTemp/92417.jpg'
p2868
g3
(g4
(I0
tS'b'
tRp2869
(I1
(I2
tg7
I00
S'\xdc\xb16?H\x9c\x92>'
tbtp2870
a(S'/data/ad6813/pipe-data/BlueboxTemp/92428.jpg'
p2871
g3
(g4
(I0
tS'b'
tRp2872
(I1
(I2
tg7
I00
S'\x9e\x83X?\x84\xf1\x1d>'
tbtp2873
a(S'/data/ad6813/pipe-data/BlueboxTemp/92517.jpg'
p2874
g3
(g4
(I0
tS'b'
tRp2875
(I1
(I2
tg7
I00
S'e\x91x?k\xd3\xed<'
tbtp2876
a(S'/data/ad6813/pipe-data/BlueboxTemp/92676.jpg'
p2877
g3
(g4
(I0
tS'b'
tRp2878
(I1
(I2
tg7
I00
S'\xa6o]?jA\n>'
tbtp2879
a(S'/data/ad6813/pipe-data/BlueboxTemp/93164.jpg'
p2880
g3
(g4
(I0
tS'b'
tRp2881
(I1
(I2
tg7
I00
S'\r\xb5\x03?\xe6\x95\xf8>'
tbtp2882
a(S'/data/ad6813/pipe-data/BlueboxTemp/93214.jpg'
p2883
g3
(g4
(I0
tS'b'
tRp2884
(I1
(I2
tg7
I00
S'+\x7f\x7f?5\xd5\x00;'
tbtp2885
a(S'/data/ad6813/pipe-data/BlueboxTemp/93235.jpg'
p2886
g3
(g4
(I0
tS'b'
tRp2887
(I1
(I2
tg7
I00
S'\x90\xb4\x7f?j\xdd\x96:'
tbtp2888
a(S'/data/ad6813/pipe-data/BlueboxTemp/93393.jpg'
p2889
g3
(g4
(I0
tS'b'
tRp2890
(I1
(I2
tg7
I00
S'\x8b\xf6c?\xa2K\xe0='
tbtp2891
a(S'/data/ad6813/pipe-data/BlueboxTemp/94478.jpg'
p2892
g3
(g4
(I0
tS'b'
tRp2893
(I1
(I2
tg7
I00
S'sk`?k\xa4\xfc='
tbtp2894
a(S'/data/ad6813/pipe-data/BlueboxTemp/94505.jpg'
p2895
g3
(g4
(I0
tS'b'
tRp2896
(I1
(I2
tg7
I00
S'j-q?e)m='
tbtp2897
a(S'/data/ad6813/pipe-data/BlueboxTemp/94659.jpg'
p2898
g3
(g4
(I0
tS'b'
tRp2899
(I1
(I2
tg7
I00
S's\xe0K?0~P>'
tbtp2900
a(S'/data/ad6813/pipe-data/BlueboxTemp/94697.jpg'
p2901
g3
(g4
(I0
tS'b'
tRp2902
(I1
(I2
tg7
I00
S'\x15\x0cd?M\x9f\xdf='
tbtp2903
a(S'/data/ad6813/pipe-data/BlueboxTemp/94699.jpg'
p2904
g3
(g4
(I0
tS'b'
tRp2905
(I1
(I2
tg7
I00
S'z\x97p?e\x88v='
tbtp2906
a(S'/data/ad6813/pipe-data/BlueboxTemp/94723.jpg'
p2907
g3
(g4
(I0
tS'b'
tRp2908
(I1
(I2
tg7
I00
S'\x92~O?\xb4\x05B>'
tbtp2909
a(S'/data/ad6813/pipe-data/BlueboxTemp/95083.jpg'
p2910
g3
(g4
(I0
tS'b'
tRp2911
(I1
(I2
tg7
I00
S'\xa5\xa2A?puy>'
tbtp2912
a(S'/data/ad6813/pipe-data/BlueboxTemp/95107.jpg'
p2913
g3
(g4
(I0
tS'b'
tRp2914
(I1
(I2
tg7
I00
S'V\x8ek?>\x8d\xa3='
tbtp2915
a(S'/data/ad6813/pipe-data/BlueboxTemp/95130.jpg'
p2916
g3
(g4
(I0
tS'b'
tRp2917
(I1
(I2
tg7
I00
S'\xc6Aq?\xa3\xe3k='
tbtp2918
a(S'/data/ad6813/pipe-data/BlueboxTemp/95193.jpg'
p2919
g3
(g4
(I0
tS'b'
tRp2920
(I1
(I2
tg7
I00
S'\x88\xe7L?\xe2aL>'
tbtp2921
a(S'/data/ad6813/pipe-data/BlueboxTemp/95787.jpg'
p2922
g3
(g4
(I0
tS'b'
tRp2923
(I1
(I2
tg7
I00
S'\xf3\xfdj?_\x10\xa8='
tbtp2924
a(S'/data/ad6813/pipe-data/BlueboxTemp/96050.jpg'
p2925
g3
(g4
(I0
tS'b'
tRp2926
(I1
(I2
tg7
I00
S'\x93\x1ak?e+\xa7='
tbtp2927
a(S'/data/ad6813/pipe-data/BlueboxTemp/96300.jpg'
p2928
g3
(g4
(I0
tS'b'
tRp2929
(I1
(I2
tg7
I00
S'.{k?\x87&\xa4='
tbtp2930
a(S'/data/ad6813/pipe-data/BlueboxTemp/96303.jpg'
p2931
g3
(g4
(I0
tS'b'
tRp2932
(I1
(I2
tg7
I00
S'\xa0\xb6{?\xf5+\x89<'
tbtp2933
a(S'/data/ad6813/pipe-data/BlueboxTemp/96342.jpg'
p2934
g3
(g4
(I0
tS'b'
tRp2935
(I1
(I2
tg7
I00
S'\xbe\x94g?\x0eZ\xc3='
tbtp2936
a(S'/data/ad6813/pipe-data/BlueboxTemp/96545.jpg'
p2937
g3
(g4
(I0
tS'b'
tRp2938
(I1
(I2
tg7
I00
S'\xdbG\x7f?\xa7#8;'
tbtp2939
a(S'/data/ad6813/pipe-data/BlueboxTemp/96558.jpg'
p2940
g3
(g4
(I0
tS'b'
tRp2941
(I1
(I2
tg7
I00
S'\xb3Pm?]z\x95='
tbtp2942
a(S'/data/ad6813/pipe-data/BlueboxTemp/96640.jpg'
p2943
g3
(g4
(I0
tS'b'
tRp2944
(I1
(I2
tg7
I00
S'@\xb3s?\x12\xccD='
tbtp2945
a(S'/data/ad6813/pipe-data/BlueboxTemp/96650.jpg'
p2946
g3
(g4
(I0
tS'b'
tRp2947
(I1
(I2
tg7
I00
S'\x95\x03f?Z\xe3\xcf='
tbtp2948
a(S'/data/ad6813/pipe-data/BlueboxTemp/96716.jpg'
p2949
g3
(g4
(I0
tS'b'
tRp2950
(I1
(I2
tg7
I00
S'd\xe5\x84>N\x8d=?'
tbtp2951
a(S'/data/ad6813/pipe-data/BlueboxTemp/96791.jpg'
p2952
g3
(g4
(I0
tS'b'
tRp2953
(I1
(I2
tg7
I00
S'\xb5d\x8e>\xa5\xcd8?'
tbtp2954
a(S'/data/ad6813/pipe-data/BlueboxTemp/96882.jpg'
p2955
g3
(g4
(I0
tS'b'
tRp2956
(I1
(I2
tg7
I00
S'\x19\x8d7?\xce\xe5\x90>'
tbtp2957
a(S'/data/ad6813/pipe-data/BlueboxTemp/96924.jpg'
p2958
g3
(g4
(I0
tS'b'
tRp2959
(I1
(I2
tg7
I00
S'\x9a\x12b?6k\xef='
tbtp2960
a(S'/data/ad6813/pipe-data/BlueboxTemp/96944.jpg'
p2961
g3
(g4
(I0
tS'b'
tRp2962
(I1
(I2
tg7
I00
S'\x93\x9ew?\xe2\x16\x06='
tbtp2963
a(S'/data/ad6813/pipe-data/BlueboxTemp/97183.jpg'
p2964
g3
(g4
(I0
tS'b'
tRp2965
(I1
(I2
tg7
I00
S'\xfd\xaca?\x10\x98\xf2='
tbtp2966
a(S'/data/ad6813/pipe-data/BlueboxTemp/97200.jpg'
p2967
g3
(g4
(I0
tS'b'
tRp2968
(I1
(I2
tg7
I00
S'\xa8\x80W?b\xfd!>'
tbtp2969
a(S'/data/ad6813/pipe-data/BlueboxTemp/97297.jpg'
p2970
g3
(g4
(I0
tS'b'
tRp2971
(I1
(I2
tg7
I00
S'w\xcf=?\x12a\x84>'
tbtp2972
a(S'/data/ad6813/pipe-data/BlueboxTemp/97376.jpg'
p2973
g3
(g4
(I0
tS'b'
tRp2974
(I1
(I2
tg7
I00
S'jp\xd6>\xcb\xc7\x14?'
tbtp2975
a(S'/data/ad6813/pipe-data/BlueboxTemp/97474.jpg'
p2976
g3
(g4
(I0
tS'b'
tRp2977
(I1
(I2
tg7
I00
S'>\xeft?\x13\x0c1='
tbtp2978
a(S'/data/ad6813/pipe-data/BlueboxTemp/97477.jpg'
p2979
g3
(g4
(I0
tS'b'
tRp2980
(I1
(I2
tg7
I00
S'm\xbdm?\x9c\x14\x92='
tbtp2981
a(S'/data/ad6813/pipe-data/BlueboxTemp/97480.jpg'
p2982
g3
(g4
(I0
tS'b'
tRp2983
(I1
(I2
tg7
I00
S'\xde\x88k?\x10\xb9\xa3='
tbtp2984
a(S'/data/ad6813/pipe-data/BlueboxTemp/98022.jpg'
p2985
g3
(g4
(I0
tS'b'
tRp2986
(I1
(I2
tg7
I00
S'\xfc\x10\x01?\x08\xde\xfd>'
tbtp2987
a(S'/data/ad6813/pipe-data/BlueboxTemp/98040.jpg'
p2988
g3
(g4
(I0
tS'b'
tRp2989
(I1
(I2
tg7
I00
S'\xb2su?\xcd\xc4(='
tbtp2990
a(S'/data/ad6813/pipe-data/BlueboxTemp/98043.jpg'
p2991
g3
(g4
(I0
tS'b'
tRp2992
(I1
(I2
tg7
I00
S'\x1e\xd6n?\nO\x89='
tbtp2993
a(S'/data/ad6813/pipe-data/BlueboxTemp/98254.jpg'
p2994
g3
(g4
(I0
tS'b'
tRp2995
(I1
(I2
tg7
I00
S'\xcfk\xcb>\x19J\x1a?'
tbtp2996
a(S'/data/ad6813/pipe-data/BlueboxTemp/98369.jpg'
p2997
g3
(g4
(I0
tS'b'
tRp2998
(I1
(I2
tg7
I00
S'\xe5Jd?\xe3\xa8\xdd='
tbtp2999
a(S'/data/ad6813/pipe-data/BlueboxTemp/98414.jpg'
p3000
g3
(g4
(I0
tS'b'
tRp3001
(I1
(I2
tg7
I00
S'8\xf3??\x90\x19\x80>'
tbtp3002
a(S'/data/ad6813/pipe-data/BlueboxTemp/99924.jpg'
p3003
g3
(g4
(I0
tS'b'
tRp3004
(I1
(I2
tg7
I00
S'eha>\xe7\xa5G?'
tbtp3005
a.