(lp1
(S'/data/ad6813/pipe-data/Blue100/198098.jpg'
p2
cnumpy.core.multiarray
_reconstruct
p3
(cnumpy
ndarray
p4
(I0
tS'b'
tRp5
(I1
(I2
tcnumpy
dtype
p6
(S'f4'
I0
I1
tRp7
(I3
S'<'
NNNI-1
I-1
I0
tbI00
S':\x929?\x8e\xdb\x8c>'
tbtp8
a(S'/data/ad6813/pipe-data/Blue100/198107.jpg'
p9
g3
(g4
(I0
tS'b'
tRp10
(I1
(I2
tg7
I00
S'\x80\xc8\n?\x00o\xea>'
tbtp11
a(S'/data/ad6813/pipe-data/Blue100/198117.jpg'
p12
g3
(g4
(I0
tS'b'
tRp13
(I1
(I2
tg7
I00
S'\x10IJ?\xc2\xdbV>'
tbtp14
a(S'/data/ad6813/pipe-data/Blue100/198118.jpg'
p15
g3
(g4
(I0
tS'b'
tRp16
(I1
(I2
tg7
I00
S'%\xebb?\xe3\xa6\xe8='
tbtp17
a(S'/data/ad6813/pipe-data/Blue100/198121.jpg'
p18
g3
(g4
(I0
tS'b'
tRp19
(I1
(I2
tg7
I00
S'\xe1\x02\x04?=\xfa\xf7>'
tbtp20
a(S'/data/ad6813/pipe-data/Blue100/198122.jpg'
p21
g3
(g4
(I0
tS'b'
tRp22
(I1
(I2
tg7
I00
S'\x81\xbe3?\xfa\x82\x98>'
tbtp23
a(S'/data/ad6813/pipe-data/Blue100/198132.jpg'
p24
g3
(g4
(I0
tS'b'
tRp25
(I1
(I2
tg7
I00
S'\xf2\xc4D?;\xecl>'
tbtp26
a(S'/data/ad6813/pipe-data/Blue100/198134.jpg'
p27
g3
(g4
(I0
tS'b'
tRp28
(I1
(I2
tg7
I00
S'v\xeaH?0V\\>'
tbtp29
a(S'/data/ad6813/pipe-data/Blue100/198140.jpg'
p30
g3
(g4
(I0
tS'b'
tRp31
(I1
(I2
tg7
I00
S'\xe3\xe8g?\xe4\xb8\xc0='
tbtp32
a(S'/data/ad6813/pipe-data/Blue100/198143.jpg'
p33
g3
(g4
(I0
tS'b'
tRp34
(I1
(I2
tg7
I00
S'\xdf\xbd*?B\x84\xaa>'
tbtp35
a(S'/data/ad6813/pipe-data/Blue100/198164.jpg'
p36
g3
(g4
(I0
tS'b'
tRp37
(I1
(I2
tg7
I00
S'\xa5\x90\xd8>\xad\xb7\x13?'
tbtp38
a(S'/data/ad6813/pipe-data/Blue100/198170.jpg'
p39
g3
(g4
(I0
tS'b'
tRp40
(I1
(I2
tg7
I00
S'\x89\x172?\xef\xd0\x9b>'
tbtp41
a(S'/data/ad6813/pipe-data/Blue100/198174.jpg'
p42
g3
(g4
(I0
tS'b'
tRp43
(I1
(I2
tg7
I00
S'\xb6N=?\x92b\x85>'
tbtp44
a(S'/data/ad6813/pipe-data/Blue100/198176.jpg'
p45
g3
(g4
(I0
tS'b'
tRp46
(I1
(I2
tg7
I00
S'\x96\xe6\x1b?\xd82\xc8>'
tbtp47
a(S'/data/ad6813/pipe-data/Blue100/198183.jpg'
p48
g3
(g4
(I0
tS'b'
tRp49
(I1
(I2
tg7
I00
S'\xe6no>G$D?'
tbtp50
a(S'/data/ad6813/pipe-data/Blue100/198190.jpg'
p51
g3
(g4
(I0
tS'b'
tRp52
(I1
(I2
tg7
I00
S'\xe0\x1do?\xf7\x10\x87='
tbtp53
a(S'/data/ad6813/pipe-data/Blue100/198210.jpg'
p54
g3
(g4
(I0
tS'b'
tRp55
(I1
(I2
tg7
I00
S'\xca\xe7T?\xd7`,>'
tbtp56
a(S'/data/ad6813/pipe-data/Blue100/198211.jpg'
p57
g3
(g4
(I0
tS'b'
tRp58
(I1
(I2
tg7
I00
S'\x16YU?\xa4\x9b*>'
tbtp59
a(S'/data/ad6813/pipe-data/Blue100/198214.jpg'
p60
g3
(g4
(I0
tS'b'
tRp61
(I1
(I2
tg7
I00
S'\x85UR?\xee\xa96>'
tbtp62
a(S'/data/ad6813/pipe-data/Blue100/198215.jpg'
p63
g3
(g4
(I0
tS'b'
tRp64
(I1
(I2
tg7
I00
S'\xe2l^?{L\x06>'
tbtp65
a(S'/data/ad6813/pipe-data/Blue100/198218.jpg'
p66
g3
(g4
(I0
tS'b'
tRp67
(I1
(I2
tg7
I00
S'\x8a\x19Z?\xe3\x99\x17>'
tbtp68
a(S'/data/ad6813/pipe-data/Blue100/198219.jpg'
p69
g3
(g4
(I0
tS'b'
tRp70
(I1
(I2
tg7
I00
S'ma2?%=\x9b>'
tbtp71
a(S'/data/ad6813/pipe-data/Blue100/198222.jpg'
p72
g3
(g4
(I0
tS'b'
tRp73
(I1
(I2
tg7
I00
S'3\xc5^?6\xeb\x04>'
tbtp74
a(S'/data/ad6813/pipe-data/Blue100/198223.jpg'
p75
g3
(g4
(I0
tS'b'
tRp76
(I1
(I2
tg7
I00
S'\xf5\x94,?\x19\xd6\xa6>'
tbtp77
a(S'/data/ad6813/pipe-data/Blue100/198226.jpg'
p78
g3
(g4
(I0
tS'b'
tRp79
(I1
(I2
tg7
I00
S'\xfb\x8f[?\r\xc0\x11>'
tbtp80
a(S'/data/ad6813/pipe-data/Blue100/198228.jpg'
p81
g3
(g4
(I0
tS'b'
tRp82
(I1
(I2
tg7
I00
S'\xf9\xfc2?\x0b\x06\x9a>'
tbtp83
a(S'/data/ad6813/pipe-data/Blue100/198229.jpg'
p84
g3
(g4
(I0
tS'b'
tRp85
(I1
(I2
tg7
I00
S'1\x06G?E\xe7c>'
tbtp86
a(S'/data/ad6813/pipe-data/Blue100/198239.jpg'
p87
g3
(g4
(I0
tS'b'
tRp88
(I1
(I2
tg7
I00
S'\x88\xd9i?\xca3\xb1='
tbtp89
a(S'/data/ad6813/pipe-data/Blue100/198242.jpg'
p90
g3
(g4
(I0
tS'b'
tRp91
(I1
(I2
tg7
I00
S'm7\x07?&\x91\xf1>'
tbtp92
a(S'/data/ad6813/pipe-data/Blue100/198245.jpg'
p93
g3
(g4
(I0
tS'b'
tRp94
(I1
(I2
tg7
I00
S'\xe3\xdeT?y\x84,>'
tbtp95
a(S'/data/ad6813/pipe-data/Blue100/198249.jpg'
p96
g3
(g4
(I0
tS'b'
tRp97
(I1
(I2
tg7
I00
S'\x1f\x96G?\x86\xa7a>'
tbtp98
a(S'/data/ad6813/pipe-data/Blue100/198262.jpg'
p99
g3
(g4
(I0
tS'b'
tRp100
(I1
(I2
tg7
I00
S'NM\n?ee\xeb>'
tbtp101
a(S'/data/ad6813/pipe-data/Blue100/198265.jpg'
p102
g3
(g4
(I0
tS'b'
tRp103
(I1
(I2
tg7
I00
S"\xed\xbd'?(\x84\xb0>"
tbtp104
a(S'/data/ad6813/pipe-data/Blue100/198270.jpg'
p105
g3
(g4
(I0
tS'b'
tRp106
(I1
(I2
tg7
I00
S'\xc7-\x0e?p\xa4\xe3>'
tbtp107
a(S'/data/ad6813/pipe-data/Blue100/198271.jpg'
p108
g3
(g4
(I0
tS'b'
tRp109
(I1
(I2
tg7
I00
S'\xe57`?\xc3@\xfe='
tbtp110
a(S'/data/ad6813/pipe-data/Blue100/198280.jpg'
p111
g3
(g4
(I0
tS'b'
tRp112
(I1
(I2
tg7
I00
S'\x1d\x84A?\x85\xefy>'
tbtp113
a(S'/data/ad6813/pipe-data/Blue100/198291.jpg'
p114
g3
(g4
(I0
tS'b'
tRp115
(I1
(I2
tg7
I00
S"\xc6Fy?\x02'\xd7<"
tbtp116
a(S'/data/ad6813/pipe-data/Blue100/198297.jpg'
p117
g3
(g4
(I0
tS'b'
tRp118
(I1
(I2
tg7
I00
S'\x960\xe4>\xb6\xe7\r?'
tbtp119
a(S'/data/ad6813/pipe-data/Blue100/198307.jpg'
p120
g3
(g4
(I0
tS'b'
tRp121
(I1
(I2
tg7
I00
S'\xd120?_\x9a\x9f>'
tbtp122
a(S'/data/ad6813/pipe-data/Blue100/198310.jpg'
p123
g3
(g4
(I0
tS'b'
tRp124
(I1
(I2
tg7
I00
S'\xcfi\x06?b,\xf3>'
tbtp125
a(S'/data/ad6813/pipe-data/Blue100/198311.jpg'
p126
g3
(g4
(I0
tS'b'
tRp127
(I1
(I2
tg7
I00
S':\xd3X?\x1d\xb3\x1c>'
tbtp128
a(S'/data/ad6813/pipe-data/Blue100/198317.jpg'
p129
g3
(g4
(I0
tS'b'
tRp130
(I1
(I2
tg7
I00
S'\xc2!\x15?}\xbc\xd5>'
tbtp131
a(S'/data/ad6813/pipe-data/Blue100/198321.jpg'
p132
g3
(g4
(I0
tS'b'
tRp133
(I1
(I2
tg7
I00
S'\xca\xec\x05?m&\xf4>'
tbtp134
a(S'/data/ad6813/pipe-data/Blue100/198322.jpg'
p135
g3
(g4
(I0
tS'b'
tRp136
(I1
(I2
tg7
I00
S'\xed\xa6j?\x9a\xc8\xaa='
tbtp137
a(S'/data/ad6813/pipe-data/Blue100/198328.jpg'
p138
g3
(g4
(I0
tS'b'
tRp139
(I1
(I2
tg7
I00
S'6\x8b\x1a?\x91\xe9\xca>'
tbtp140
a(S'/data/ad6813/pipe-data/Blue100/198330.jpg'
p141
g3
(g4
(I0
tS'b'
tRp142
(I1
(I2
tg7
I00
S'([Z?Y\x93\x16>'
tbtp143
a(S'/data/ad6813/pipe-data/Blue100/198331.jpg'
p144
g3
(g4
(I0
tS'b'
tRp145
(I1
(I2
tg7
I00
S'[OU?\x92\xc2*>'
tbtp146
a(S'/data/ad6813/pipe-data/Blue100/198339.jpg'
p147
g3
(g4
(I0
tS'b'
tRp148
(I1
(I2
tg7
I00
S'\x92\x1d]?\xb9\x89\x0b>'
tbtp149
a(S'/data/ad6813/pipe-data/Blue100/198344.jpg'
p150
g3
(g4
(I0
tS'b'
tRp151
(I1
(I2
tg7
I00
S'\x93\x82h?f\xeb\xbb='
tbtp152
a(S'/data/ad6813/pipe-data/Blue100/198355.jpg'
p153
g3
(g4
(I0
tS'b'
tRp154
(I1
(I2
tg7
I00
S'\x0b\xa8G?\xce_a>'
tbtp155
a(S'/data/ad6813/pipe-data/Blue100/198357.jpg'
p156
g3
(g4
(I0
tS'b'
tRp157
(I1
(I2
tg7
I00
S'\xa2!8?\xbf\xbc\x8f>'
tbtp158
a(S'/data/ad6813/pipe-data/Blue100/198360.jpg'
p159
g3
(g4
(I0
tS'b'
tRp160
(I1
(I2
tg7
I00
S'2\xf8B?8\x1ft>'
tbtp161
a(S'/data/ad6813/pipe-data/Blue100/198363.jpg'
p162
g3
(g4
(I0
tS'b'
tRp163
(I1
(I2
tg7
I00
S'f\xe6\x11?63\xdc>'
tbtp164
a(S'/data/ad6813/pipe-data/Blue100/198364.jpg'
p165
g3
(g4
(I0
tS'b'
tRp166
(I1
(I2
tg7
I00
S'\x93Vd?`K\xdd='
tbtp167
a(S'/data/ad6813/pipe-data/Blue100/198365.jpg'
p168
g3
(g4
(I0
tS'b'
tRp169
(I1
(I2
tg7
I00
S'cK\\?v\xd2\x0e>'
tbtp170
a(S'/data/ad6813/pipe-data/Blue100/198368.jpg'
p171
g3
(g4
(I0
tS'b'
tRp172
(I1
(I2
tg7
I00
S'SN]?\xb5\xc6\n>'
tbtp173
a(S'/data/ad6813/pipe-data/Blue100/198373.jpg'
p174
g3
(g4
(I0
tS'b'
tRp175
(I1
(I2
tg7
I00
S'\xc8\xb3e?\xbea\xd2='
tbtp176
a(S'/data/ad6813/pipe-data/Blue100/198377.jpg'
p177
g3
(g4
(I0
tS'b'
tRp178
(I1
(I2
tg7
I00
S'\xfb\xefM?\x1a@H>'
tbtp179
a(S'/data/ad6813/pipe-data/Blue100/198379.jpg'
p180
g3
(g4
(I0
tS'b'
tRp181
(I1
(I2
tg7
I00
S'\nqk?\xa9w\xa4='
tbtp182
a(S'/data/ad6813/pipe-data/Blue100/198382.jpg'
p183
g3
(g4
(I0
tS'b'
tRp184
(I1
(I2
tg7
I00
S'\xb2\n\x0e?\x9e\xea\xe3>'
tbtp185
a(S'/data/ad6813/pipe-data/Blue100/198388.jpg'
p186
g3
(g4
(I0
tS'b'
tRp187
(I1
(I2
tg7
I00
S'\x82\xe9h?\xee\xb3\xb8='
tbtp188
a(S'/data/ad6813/pipe-data/Blue100/198389.jpg'
p189
g3
(g4
(I0
tS'b'
tRp190
(I1
(I2
tg7
I00
S'4\xee.?\x96#\xa2>'
tbtp191
a(S'/data/ad6813/pipe-data/Blue100/198395.jpg'
p192
g3
(g4
(I0
tS'b'
tRp193
(I1
(I2
tg7
I00
S'm\x1dI?P\x8a[>'
tbtp194
a(S'/data/ad6813/pipe-data/Blue100/198396.jpg'
p195
g3
(g4
(I0
tS'b'
tRp196
(I1
(I2
tg7
I00
S'\x17\x057?\xd2\xf5\x91>'
tbtp197
a(S'/data/ad6813/pipe-data/Blue100/198398.jpg'
p198
g3
(g4
(I0
tS'b'
tRp199
(I1
(I2
tg7
I00
S'oOJ?>\xc2V>'
tbtp200
a(S'/data/ad6813/pipe-data/Blue100/198407.jpg'
p201
g3
(g4
(I0
tS'b'
tRp202
(I1
(I2
tg7
I00
S'J\x1dM?\xd5\x8aK>'
tbtp203
a(S'/data/ad6813/pipe-data/Blue100/198410.jpg'
p204
g3
(g4
(I0
tS'b'
tRp205
(I1
(I2
tg7
I00
S'.\x07l?\x87\xc6\x9f='
tbtp206
a(S'/data/ad6813/pipe-data/Blue100/198411.jpg'
p207
g3
(g4
(I0
tS'b'
tRp208
(I1
(I2
tg7
I00
S'\xf2\xdbi?k \xb1='
tbtp209
a(S'/data/ad6813/pipe-data/Blue100/198415.jpg'
p210
g3
(g4
(I0
tS'b'
tRp211
(I1
(I2
tg7
I00
S'zwo?3D\x84='
tbtp212
a(S'/data/ad6813/pipe-data/Blue100/198442.jpg'
p213
g3
(g4
(I0
tS'b'
tRp214
(I1
(I2
tg7
I00
S'\xe7\x91E?^\xb8i>'
tbtp215
a(S'/data/ad6813/pipe-data/Blue100/198456.jpg'
p216
g3
(g4
(I0
tS'b'
tRp217
(I1
(I2
tg7
I00
S'W2K?\xa66S>'
tbtp218
a(S'/data/ad6813/pipe-data/Blue100/198470.jpg'
p219
g3
(g4
(I0
tS'b'
tRp220
(I1
(I2
tg7
I00
S'\x13\xd11?\xd9]\x9c>'
tbtp221
a(S'/data/ad6813/pipe-data/Blue100/198471.jpg'
p222
g3
(g4
(I0
tS'b'
tRp223
(I1
(I2
tg7
I00
S'\xc0\xb4`?\xfaY\xfa='
tbtp224
a(S'/data/ad6813/pipe-data/Blue100/198474.jpg'
p225
g3
(g4
(I0
tS'b'
tRp226
(I1
(I2
tg7
I00
S"\x83}p?\xb2'x="
tbtp227
a(S'/data/ad6813/pipe-data/Blue100/198475.jpg'
p228
g3
(g4
(I0
tS'b'
tRp229
(I1
(I2
tg7
I00
S'\xe2z\xff>\x8eB\x00?'
tbtp230
a(S'/data/ad6813/pipe-data/Blue100/198476.jpg'
p231
g3
(g4
(I0
tS'b'
tRp232
(I1
(I2
tg7
I00
S'zNP?\x1a\xc6>>'
tbtp233
a(S'/data/ad6813/pipe-data/Blue100/198479.jpg'
p234
g3
(g4
(I0
tS'b'
tRp235
(I1
(I2
tg7
I00
S'<U$?\x8bU\xb7>'
tbtp236
a(S'/data/ad6813/pipe-data/Blue100/198481.jpg'
p237
g3
(g4
(I0
tS'b'
tRp238
(I1
(I2
tg7
I00
S'\x86Lt?\xb47;='
tbtp239
a(S'/data/ad6813/pipe-data/Blue100/198509.jpg'
p240
g3
(g4
(I0
tS'b'
tRp241
(I1
(I2
tg7
I00
S'\x9d< ?\xc8\x86\xbf>'
tbtp242
a(S'/data/ad6813/pipe-data/Blue100/198518.jpg'
p243
g3
(g4
(I0
tS'b'
tRp244
(I1
(I2
tg7
I00
S'F\xb6\xc8>\xdd\xa4\x1b?'
tbtp245
a(S'/data/ad6813/pipe-data/Blue100/198519.jpg'
p246
g3
(g4
(I0
tS'b'
tRp247
(I1
(I2
tg7
I00
S'\xb1\xd6\xbd>\xa8\x14!?'
tbtp248
a(S'/data/ad6813/pipe-data/Blue100/198528.jpg'
p249
g3
(g4
(I0
tS'b'
tRp250
(I1
(I2
tg7
I00
S'\x9b\x8ff?\x1e\x83\xcb='
tbtp251
a(S'/data/ad6813/pipe-data/Blue100/198529.jpg'
p252
g3
(g4
(I0
tS'b'
tRp253
(I1
(I2
tg7
I00
S'7\xb2\xbf>\xe4& ?'
tbtp254
a(S'/data/ad6813/pipe-data/Blue100/198532.jpg'
p255
g3
(g4
(I0
tS'b'
tRp256
(I1
(I2
tg7
I00
S'bW*?;Q\xab>'
tbtp257
a(S'/data/ad6813/pipe-data/Blue100/198540.jpg'
p258
g3
(g4
(I0
tS'b'
tRp259
(I1
(I2
tg7
I00
S'\xe0\xd7G?\x86\xa0`>'
tbtp260
a(S'/data/ad6813/pipe-data/Blue100/198556.jpg'
p261
g3
(g4
(I0
tS'b'
tRp262
(I1
(I2
tg7
I00
S' Pl?\x05\x7f\x9d='
tbtp263
a(S'/data/ad6813/pipe-data/Blue100/198600.jpg'
p264
g3
(g4
(I0
tS'b'
tRp265
(I1
(I2
tg7
I00
S'Q:\x02?^\x8b\xfb>'
tbtp266
a(S'/data/ad6813/pipe-data/Blue100/198601.jpg'
p267
g3
(g4
(I0
tS'b'
tRp268
(I1
(I2
tg7
I00
S'\xfb\xe2&?\n:\xb2>'
tbtp269
a(S'/data/ad6813/pipe-data/Blue100/198604.jpg'
p270
g3
(g4
(I0
tS'b'
tRp271
(I1
(I2
tg7
I00
S'e\xc3\xc5>N\x1e\x1d?'
tbtp272
a(S'/data/ad6813/pipe-data/Blue100/198608.jpg'
p273
g3
(g4
(I0
tS'b'
tRp274
(I1
(I2
tg7
I00
S'\x9fA<?\xc5|\x87>'
tbtp275
a(S'/data/ad6813/pipe-data/Blue100/198610.jpg'
p276
g3
(g4
(I0
tS'b'
tRp277
(I1
(I2
tg7
I00
S'\xbb\xd2+?\x8aZ\xa8>'
tbtp278
a(S'/data/ad6813/pipe-data/Blue100/198620.jpg'
p279
g3
(g4
(I0
tS'b'
tRp280
(I1
(I2
tg7
I00
S'8\xcft?\x96\x0c3='
tbtp281
a(S'/data/ad6813/pipe-data/Blue100/198622.jpg'
p282
g3
(g4
(I0
tS'b'
tRp283
(I1
(I2
tg7
I00
S'n\xf1Q?H:8>'
tbtp284
a(S'/data/ad6813/pipe-data/Blue100/198627.jpg'
p285
g3
(g4
(I0
tS'b'
tRp286
(I1
(I2
tg7
I00
S'\xe5\x11U?j\xb8+>'
tbtp287
a(S'/data/ad6813/pipe-data/Blue100/198629.jpg'
p288
g3
(g4
(I0
tS'b'
tRp289
(I1
(I2
tg7
I00
S'\xa6\x00l?\xd5\xfa\x9f='
tbtp290
a(S'/data/ad6813/pipe-data/Blue100/198630.jpg'
p291
g3
(g4
(I0
tS'b'
tRp292
(I1
(I2
tg7
I00
S'=^_?\x0e\x87\x02>'
tbtp293
a(S'/data/ad6813/pipe-data/Blue100/198637.jpg'
p294
g3
(g4
(I0
tS'b'
tRp295
(I1
(I2
tg7
I00
S'V\xb2??R\x9b\x80>'
tbtp296
a(S'/data/ad6813/pipe-data/Blue100/198638.jpg'
p297
g3
(g4
(I0
tS'b'
tRp298
(I1
(I2
tg7
I00
S'\x06\xf1D?\xee;l>'
tbtp299
a(S'/data/ad6813/pipe-data/Blue100/198640.jpg'
p300
g3
(g4
(I0
tS'b'
tRp301
(I1
(I2
tg7
I00
S'\xb6Ho?R\xba\x85='
tbtp302
a(S'/data/ad6813/pipe-data/Blue100/198653.jpg'
p303
g3
(g4
(I0
tS'b'
tRp304
(I1
(I2
tg7
I00
S"\xde/V?\x8e@'>"
tbtp305
a.